///////////////////////////////////////////////////////////////////////////////
//                                                                            /
// IAR C/C++ Compiler V8.20.2.41139 for 8051            18/Sep/2013  16:11:59 /
// Copyright 2004-2013 IAR Systems AB.                                        /
//                                                                            /
//    Core               =  plain                                             /
//    Code model         =  banked                                            /
//    Data model         =  large                                             /
//    Calling convention =  xdata reentrant                                   /
//    Constant location  =  data_rom                                          /
//    Dptr setup         =  1,16                                              /
//                                                                            /
//    Source file        =  C:\Users\emwhitmi\Documents\GitHub\RoachZStack\Ro /
//                          achZStack\Source\RoachZStack.c                    /
//    Command line       =  -f C:\Users\emwhitmi\Documents\GitHub\RoachZStack /
//                          \RoachZStack\CC2530DB\..\..\Tools\CC2530DB\f8wRou /
//                          ter.cfg (-DCPU32MHZ -DROOT=__near_func            /
//                          -DMAC_CFG_APP_PENDING_QUEUE=TRUE                  /
//                          -DMAC_CFG_TX_DATA_MAX=5 -DMAC_CFG_TX_MAX=8        /
//                          -DMAC_CFG_RX_MAX=5 -DRTR_NWK) -f                  /
//                          C:\Users\emwhitmi\Documents\GitHub\RoachZStack\Ro /
//                          achZStack\CC2530DB\..\..\Tools\CC2530DB\f8wConfig /
//                          .cfg (-DZIGBEEPRO -DSECURE=0                      /
//                          -DZG_SECURE_DYNAMIC=0 -DREFLECTOR                 /
//                          -DDEFAULT_CHANLIST=0x00000800                     /
//                          -DZDAPP_CONFIG_PAN_ID=0xFFFF                      /
//                          -DNWK_START_DELAY=100 -DEXTENDED_JOINING_RANDOM_M /
//                          ASK=0x007F -DBEACON_REQUEST_DELAY=100             /
//                          -DBEACON_REQ_DELAY_MASK=0x00FF                    /
//                          -DLINK_STATUS_JITTER_MASK=0x007F                  /
//                          -DROUTE_EXPIRY_TIME=30 -DAPSC_ACK_WAIT_DURATION_P /
//                          OLLED=3000 -DNWK_INDIRECT_MSG_TIMEOUT=7           /
//                          -DMAX_RREQ_ENTRIES=8 -DAPSC_MAX_FRAME_RETRIES=3   /
//                          -DNWK_MAX_DATA_RETRIES=2                          /
//                          -DMAX_POLL_FAILURE_RETRIES=2 -DMAX_BCAST=9        /
//                          -DAPS_MAX_GROUPS=16 -DMAX_RTG_ENTRIES=40          /
//                          -DNWK_MAX_BINDING_ENTRIES=4                       /
//                          -DMAX_BINDING_CLUSTER_IDS=4                       /
//                          "-DDEFAULT_KEY={0x01, 0x03, 0x05, 0x07, 0x09,     /
//                          0x0B, 0x0D, 0x0F, 0x00, 0x02, 0x04, 0x06, 0x08,   /
//                          0x0A, 0x0C, 0x0D}" -DMAC_MAX_FRAME_SIZE=116       /
//                          -DZDNWKMGR_MIN_TRANSMISSIONS=20 "-DCONST=const    /
//                          __code" -DGENERIC=__generic                       /
//                          -DRFD_RCVC_ALWAYS_ON=FALSE -DPOLL_RATE=1000       /
//                          -DQUEUED_POLL_RATE=100 -DRESPONSE_POLL_RATE=100)  /
//                          -DREJOIN_POLL_RATE=440 C:\Users\emwhitmi\Document /
//                          s\GitHub\RoachZStack\RoachZStack\Source\RoachZSta /
//                          ck.c -D HAL_UART=TRUE -D SERIAL_APP_PORT=0 -D     /
//                          LCD_SUPPORTED -lC C:\Users\emwhitmi\Documents\Git /
//                          Hub\RoachZStack\RoachZStack\CC2530DB\RouterEB\Lis /
//                          t\ -lA C:\Users\emwhitmi\Documents\GitHub\RoachZS /
//                          tack\RoachZStack\CC2530DB\RouterEB\List\          /
//                          --diag_suppress Pe001,Pa010 -o                    /
//                          C:\Users\emwhitmi\Documents\GitHub\RoachZStack\Ro /
//                          achZStack\CC2530DB\RouterEB\Obj\ -e               /
//                          --no_code_motion --debug --core=plain             /
//                          --dptr=16,1 --data_model=large                    /
//                          --code_model=banked --calling_convention=xdata_re /
//                          entrant --place_constants=data_rom                /
//                          --nr_virtual_regs 16 -I                           /
//                          C:\Users\emwhitmi\Documents\GitHub\RoachZStack\Ro /
//                          achZStack\CC2530DB\ -I C:\Users\emwhitmi\Document /
//                          s\GitHub\RoachZStack\RoachZStack\CC2530DB\..\Sour /
//                          ce\ -I C:\Users\emwhitmi\Documents\GitHub\RoachZS /
//                          tack\RoachZStack\CC2530DB\..\..\ZMain\TI2530DB\   /
//                          -I "C:\Texas Instruments\ZStack-CC2530-2.5.1a\Com /
//                          ponents\hal\include\" -I "C:\Texas                /
//                          Instruments\ZStack-CC2530-2.5.1a\Components\hal\t /
//                          arget\CC2530EB\" -I "C:\Texas                     /
//                          Instruments\ZStack-CC2530-2.5.1a\Components\mac\i /
//                          nclude\" -I "C:\Texas Instruments\ZStack-CC2530-2 /
//                          .5.1a\Components\mac\high_level\" -I "C:\Texas    /
//                          Instruments\ZStack-CC2530-2.5.1a\Components\mac\l /
//                          ow_level\srf04\" -I "C:\Texas                     /
//                          Instruments\ZStack-CC2530-2.5.1a\Components\mac\l /
//                          ow_level\srf04\single_chip\" -I "C:\Texas         /
//                          Instruments\ZStack-CC2530-2.5.1a\Components\mt\"  /
//                          -I "C:\Texas Instruments\ZStack-CC2530-2.5.1a\Com /
//                          ponents\osal\include\" -I "C:\Texas               /
//                          Instruments\ZStack-CC2530-2.5.1a\Components\servi /
//                          ces\saddr\" -I "C:\Texas                          /
//                          Instruments\ZStack-CC2530-2.5.1a\Components\servi /
//                          ces\sdata\" -I "C:\Texas                          /
//                          Instruments\ZStack-CC2530-2.5.1a\Components\stack /
//                          \af\" -I "C:\Texas Instruments\ZStack-CC2530-2.5. /
//                          1a\Components\stack\nwk\" -I "C:\Texas            /
//                          Instruments\ZStack-CC2530-2.5.1a\Components\stack /
//                          \sapi\" -I "C:\Texas Instruments\ZStack-CC2530-2. /
//                          5.1a\Components\stack\sec\" -I "C:\Texas          /
//                          Instruments\ZStack-CC2530-2.5.1a\Components\stack /
//                          \sys\" -I "C:\Texas Instruments\ZStack-CC2530-2.5 /
//                          .1a\Components\stack\zdo\" -I "C:\Texas           /
//                          Instruments\ZStack-CC2530-2.5.1a\Components\zmac\ /
//                          " -I "C:\Texas Instruments\ZStack-CC2530-2.5.1a\C /
//                          omponents\zmac\f8w\" -Ohz --require_prototypes    /
//    List file          =  C:\Users\emwhitmi\Documents\GitHub\RoachZStack\Ro /
//                          achZStack\CC2530DB\RouterEB\List\RoachZStack.s51  /
//                                                                            /
//                                                                            /
///////////////////////////////////////////////////////////////////////////////

        NAME RoachZStack

        RTMODEL "__SystemLibrary", "CLib"
        RTMODEL "__calling_convention", "xdata_reentrant"
        RTMODEL "__code_model", "banked"
        RTMODEL "__core", "plain"
        RTMODEL "__data_model", "large"
        RTMODEL "__dptr_size", "16"
        RTMODEL "__extended_stack", "disabled"
        RTMODEL "__location_for_constants", "data"
        RTMODEL "__number_of_dptrs", "1"
        RTMODEL "__rt_version", "1"

        RSEG DOVERLAY:DATA:NOROOT(0)
        RSEG IOVERLAY:IDATA:NOROOT(0)
        RSEG ISTACK:IDATA:NOROOT(0)
        RSEG PSTACK:XDATA:NOROOT(0)
        RSEG XSTACK:XDATA:NOROOT(0)

        EXTERN ?ALLOC_XSTACK8
        EXTERN ?BANKED_ENTER_XDATA
        EXTERN ?BANKED_LEAVE_XDATA
        EXTERN ?BDISPATCH
        EXTERN ?DEALLOC_XSTACK8
        EXTERN ?MOVE_LONG8_XDATA_XDATA
        EXTERN ?PUSH_XSTACK_I_ONE
        EXTERN ?PUSH_XSTACK_I_THREE
        EXTERN ?PUSH_XSTACK_I_TWO
        EXTERN ?US_SWITCH_DENSE
        EXTERN ?US_SWITCH_SPARSE
        EXTERN ?V0
        EXTERN ?XSP
        EXTERN ?XSTACK_DISP0_8
        EXTERN __INIT_XDATA_Z

        FUNCTION ??RoachZStack_CallBack?relay,0203H
        PUBLIC ??RoachZStack_Init?relay
        FUNCTION ??RoachZStack_Init?relay,0203H
        PUBLIC ??RoachZStack_ProcessEvent?relay
        FUNCTION ??RoachZStack_ProcessEvent?relay,0203H
        FUNCTION ??RoachZStack_ProcessMSGCmd?relay,0203H
        FUNCTION ??RoachZStack_Send?relay,0203H
        FUNCTION RoachZStack_CallBack,021603H
        ARGFRAME XSTACK, 0, STACK
        LOCFRAME XSTACK, 9, STACK
        PUBLIC RoachZStack_ClusterList
        PUBLIC RoachZStack_Init
        FUNCTION RoachZStack_Init,021203H
        ARGFRAME XSTACK, 0, STACK
        LOCFRAME ISTACK, 2, STACK
        LOCFRAME XSTACK, 43, STACK
        PUBLIC RoachZStack_ProcessEvent
        FUNCTION RoachZStack_ProcessEvent,0a1203H
        ARGFRAME XSTACK, 0, STACK
        LOCFRAME XSTACK, 33, STACK
        FUNCTION RoachZStack_ProcessMSGCmd,0a1203H
        ARGFRAME XSTACK, 24, STACK
        ARGFRAME IOVERLAY, 0, STATIC
        ARGFRAME DOVERLAY, 0, STATIC
        LOCFRAME XSTACK, 15, STACK
        FUNCTION RoachZStack_Send,021203H
        ARGFRAME XSTACK, 24, STACK
        ARGFRAME IOVERLAY, 0, STATIC
        ARGFRAME DOVERLAY, 0, STATIC
        LOCFRAME XSTACK, 19, STACK
        PUBLIC RoachZStack_SimpleDesc
        PUBLIC RoachZStack_TaskID
        PUBLIC RoachZStack_epDesc
        
          CFI Names cfiNames0
          CFI StackFrame CFA_SP SP IDATA
          CFI StackFrame CFA_PSP16 PSP16 XDATA
          CFI StackFrame CFA_XSP16 XSP16 XDATA
          CFI StaticOverlayFrame CFA_IOVERLAY IOVERLAY
          CFI StaticOverlayFrame CFA_DOVERLAY DOVERLAY
          CFI Resource `PSW.CY`:1, `B.BR0`:1, `B.BR1`:1, `B.BR2`:1, `B.BR3`:1
          CFI Resource `B.BR4`:1, `B.BR5`:1, `B.BR6`:1, `B.BR7`:1, `VB.BR8`:1
          CFI Resource `VB.BR9`:1, `VB.BR10`:1, `VB.BR11`:1, `VB.BR12`:1
          CFI Resource `VB.BR13`:1, `VB.BR14`:1, `VB.BR15`:1, VB:8, B:8, A:8
          CFI Resource PSW:8, DPL0:8, DPH0:8, R0:8, R1:8, R2:8, R3:8, R4:8, R5:8
          CFI Resource R6:8, R7:8, V0:8, V1:8, V2:8, V3:8, V4:8, V5:8, V6:8, V7:8
          CFI Resource V8:8, V9:8, V10:8, V11:8, V12:8, V13:8, V14:8, V15:8, SP:8
          CFI Resource PSPH:8, PSPL:8, PSP16:16, XSPH:8, XSPL:8, XSP16:16
          CFI VirtualResource ?RET:24
          CFI Resource ?BRET_EXT:8
          CFI VirtualResource ?RET_HIGH:8, ?RET_LOW:8
          CFI ResourceParts PSP16 PSPH, PSPL
          CFI ResourceParts XSP16 XSPH, XSPL
          CFI ResourceParts ?RET ?BRET_EXT, ?RET_HIGH, ?RET_LOW
          CFI EndNames cfiNames0
        
          CFI Common cfiCommon0 Using cfiNames0
          CFI CodeAlign 1
          CFI DataAlign -1
          CFI ReturnAddress ?RET CODE
          CFI CFA_DOVERLAY Used
          CFI CFA_IOVERLAY Used
          CFI CFA_SP SP+-3
          CFI CFA_PSP16 PSP16+0
          CFI CFA_XSP16 XSP16+0
          CFI `PSW.CY` SameValue
          CFI `B.BR0` SameValue
          CFI `B.BR1` SameValue
          CFI `B.BR2` SameValue
          CFI `B.BR3` SameValue
          CFI `B.BR4` SameValue
          CFI `B.BR5` SameValue
          CFI `B.BR6` SameValue
          CFI `B.BR7` SameValue
          CFI `VB.BR8` SameValue
          CFI `VB.BR9` SameValue
          CFI `VB.BR10` SameValue
          CFI `VB.BR11` SameValue
          CFI `VB.BR12` SameValue
          CFI `VB.BR13` SameValue
          CFI `VB.BR14` SameValue
          CFI `VB.BR15` SameValue
          CFI VB SameValue
          CFI B Undefined
          CFI A Undefined
          CFI PSW SameValue
          CFI DPL0 SameValue
          CFI DPH0 SameValue
          CFI R0 Undefined
          CFI R1 Undefined
          CFI R2 Undefined
          CFI R3 Undefined
          CFI R4 Undefined
          CFI R5 Undefined
          CFI R6 SameValue
          CFI R7 SameValue
          CFI V0 SameValue
          CFI V1 SameValue
          CFI V2 SameValue
          CFI V3 SameValue
          CFI V4 SameValue
          CFI V5 SameValue
          CFI V6 SameValue
          CFI V7 SameValue
          CFI V8 SameValue
          CFI V9 SameValue
          CFI V10 SameValue
          CFI V11 SameValue
          CFI V12 SameValue
          CFI V13 SameValue
          CFI V14 SameValue
          CFI V15 SameValue
          CFI PSPH Undefined
          CFI PSPL Undefined
          CFI XSPH Undefined
          CFI XSPL Undefined
          CFI ?RET Concat
          CFI ?BRET_EXT Frame(CFA_SP, 3)
          CFI ?RET_HIGH Frame(CFA_SP, 2)
          CFI ?RET_LOW Frame(CFA_SP, 1)
          CFI EndCommon cfiCommon0
        
        
          CFI Common cfiCommon1 Using cfiNames0
          CFI CodeAlign 1
          CFI DataAlign -1
          CFI ReturnAddress ?RET CODE
          CFI CFA_DOVERLAY Used
          CFI CFA_IOVERLAY Used
          CFI CFA_SP SP+-2
          CFI CFA_PSP16 PSP16+0
          CFI CFA_XSP16 XSP16+0
          CFI `PSW.CY` SameValue
          CFI `B.BR0` SameValue
          CFI `B.BR1` SameValue
          CFI `B.BR2` SameValue
          CFI `B.BR3` SameValue
          CFI `B.BR4` SameValue
          CFI `B.BR5` SameValue
          CFI `B.BR6` SameValue
          CFI `B.BR7` SameValue
          CFI `VB.BR8` SameValue
          CFI `VB.BR9` SameValue
          CFI `VB.BR10` SameValue
          CFI `VB.BR11` SameValue
          CFI `VB.BR12` SameValue
          CFI `VB.BR13` SameValue
          CFI `VB.BR14` SameValue
          CFI `VB.BR15` SameValue
          CFI VB SameValue
          CFI B SameValue
          CFI A SameValue
          CFI PSW SameValue
          CFI DPL0 SameValue
          CFI DPH0 SameValue
          CFI R0 SameValue
          CFI R1 SameValue
          CFI R2 SameValue
          CFI R3 SameValue
          CFI R4 SameValue
          CFI R5 SameValue
          CFI R6 SameValue
          CFI R7 SameValue
          CFI V0 SameValue
          CFI V1 SameValue
          CFI V2 SameValue
          CFI V3 SameValue
          CFI V4 SameValue
          CFI V5 SameValue
          CFI V6 SameValue
          CFI V7 SameValue
          CFI V8 SameValue
          CFI V9 SameValue
          CFI V10 SameValue
          CFI V11 SameValue
          CFI V12 SameValue
          CFI V13 SameValue
          CFI V14 SameValue
          CFI V15 SameValue
          CFI PSPH Undefined
          CFI PSPL Undefined
          CFI XSPH Undefined
          CFI XSPL Undefined
          CFI ?RET Concat
          CFI ?BRET_EXT SameValue
          CFI ?RET_HIGH Frame(CFA_SP, 2)
          CFI ?RET_LOW Frame(CFA_SP, 1)
          CFI EndCommon cfiCommon1
        
AF_DataRequest      SYMBOL "AF_DataRequest"
??AF_DataRequest?relay SYMBOL "?relay", AF_DataRequest
HalLcdWriteString   SYMBOL "HalLcdWriteString"
??HalLcdWriteString?relay SYMBOL "?relay", HalLcdWriteString
HalLedSet           SYMBOL "HalLedSet"
??HalLedSet?relay   SYMBOL "?relay", HalLedSet
HalUARTOpen         SYMBOL "HalUARTOpen"
??HalUARTOpen?relay SYMBOL "?relay", HalUARTOpen
HalUARTRead         SYMBOL "HalUARTRead"
??HalUARTRead?relay SYMBOL "?relay", HalUARTRead
HalUARTWrite        SYMBOL "HalUARTWrite"
??HalUARTWrite?relay SYMBOL "?relay", HalUARTWrite
NLME_GetShortAddr   SYMBOL "NLME_GetShortAddr"
??NLME_GetShortAddr?relay SYMBOL "?relay", NLME_GetShortAddr
RegisterForKeys     SYMBOL "RegisterForKeys"
??RegisterForKeys?relay SYMBOL "?relay", RegisterForKeys
ZDO_ParseEPListRsp  SYMBOL "ZDO_ParseEPListRsp"
??ZDO_ParseEPListRsp?relay SYMBOL "?relay", ZDO_ParseEPListRsp
ZDO_RegisterForZDOMsg SYMBOL "ZDO_RegisterForZDOMsg"
??ZDO_RegisterForZDOMsg?relay SYMBOL "?relay", ZDO_RegisterForZDOMsg
ZDP_EndDeviceBindReq SYMBOL "ZDP_EndDeviceBindReq"
??ZDP_EndDeviceBindReq?relay SYMBOL "?relay", ZDP_EndDeviceBindReq
ZDP_MatchDescReq    SYMBOL "ZDP_MatchDescReq"
??ZDP_MatchDescReq?relay SYMBOL "?relay", ZDP_MatchDescReq
afRegister          SYMBOL "afRegister"
??afRegister?relay  SYMBOL "?relay", afRegister
osal_mem_free       SYMBOL "osal_mem_free"
??osal_mem_free?relay SYMBOL "?relay", osal_mem_free
osal_memcpy         SYMBOL "osal_memcpy"
??osal_memcpy?relay SYMBOL "?relay", osal_memcpy
osal_msg_deallocate SYMBOL "osal_msg_deallocate"
??osal_msg_deallocate?relay SYMBOL "?relay", osal_msg_deallocate
osal_msg_receive    SYMBOL "osal_msg_receive"
??osal_msg_receive?relay SYMBOL "?relay", osal_msg_receive
osal_set_event      SYMBOL "osal_set_event"
??osal_set_event?relay SYMBOL "?relay", osal_set_event
osal_start_timerEx  SYMBOL "osal_start_timerEx"
??osal_start_timerEx?relay SYMBOL "?relay", osal_start_timerEx
osal_stop_timerEx   SYMBOL "osal_stop_timerEx"
??osal_stop_timerEx?relay SYMBOL "?relay", osal_stop_timerEx
RoachZStack_Init    SYMBOL "RoachZStack_Init"
??RoachZStack_Init?relay SYMBOL "?relay", RoachZStack_Init
RoachZStack_ProcessEvent SYMBOL "RoachZStack_ProcessEvent"
??RoachZStack_ProcessEvent?relay SYMBOL "?relay", RoachZStack_ProcessEvent

        EXTERN ??AF_DataRequest?relay
        FUNCTION ??AF_DataRequest?relay,00H
        EXTERN ??HalLcdWriteString?relay
        FUNCTION ??HalLcdWriteString?relay,00H
        EXTERN ??HalLedSet?relay
        FUNCTION ??HalLedSet?relay,00H
        EXTERN ??HalUARTOpen?relay
        FUNCTION ??HalUARTOpen?relay,00H
        EXTERN ??HalUARTRead?relay
        FUNCTION ??HalUARTRead?relay,00H
        EXTERN ??HalUARTWrite?relay
        FUNCTION ??HalUARTWrite?relay,00H
        EXTERN ??NLME_GetShortAddr?relay
        FUNCTION ??NLME_GetShortAddr?relay,00H
        EXTERN ??RegisterForKeys?relay
        FUNCTION ??RegisterForKeys?relay,00H
        EXTERN ??ZDO_ParseEPListRsp?relay
        FUNCTION ??ZDO_ParseEPListRsp?relay,00H
        EXTERN ??ZDO_RegisterForZDOMsg?relay
        FUNCTION ??ZDO_RegisterForZDOMsg?relay,00H
        EXTERN ??ZDP_EndDeviceBindReq?relay
        FUNCTION ??ZDP_EndDeviceBindReq?relay,00H
        EXTERN ??ZDP_MatchDescReq?relay
        FUNCTION ??ZDP_MatchDescReq?relay,00H
        EXTERN ??afRegister?relay
        FUNCTION ??afRegister?relay,00H
        EXTERN ??osal_mem_free?relay
        FUNCTION ??osal_mem_free?relay,00H
        EXTERN ??osal_memcpy?relay
        FUNCTION ??osal_memcpy?relay,00H
        EXTERN ??osal_msg_deallocate?relay
        FUNCTION ??osal_msg_deallocate?relay,00H
        EXTERN ??osal_msg_receive?relay
        FUNCTION ??osal_msg_receive?relay,00H
        EXTERN ??osal_set_event?relay
        FUNCTION ??osal_set_event?relay,00H
        EXTERN ??osal_start_timerEx?relay
        FUNCTION ??osal_start_timerEx?relay,00H
        EXTERN ??osal_stop_timerEx?relay
        FUNCTION ??osal_stop_timerEx?relay,00H
        EXTERN AF_DataRequest
        FUNCTION AF_DataRequest,0202H
        ARGFRAME ISTACK, 0, STACK
        ARGFRAME PSTACK, 0, STACK
        ARGFRAME XSTACK, 33, STACK
        ARGFRAME IOVERLAY, 0, STATIC
        ARGFRAME DOVERLAY, 0, STATIC
        EXTERN HalLcdWriteString
        FUNCTION HalLcdWriteString,0202H
        ARGFRAME ISTACK, 0, STACK
        ARGFRAME PSTACK, 0, STACK
        ARGFRAME XSTACK, 43, STACK
        ARGFRAME IOVERLAY, 0, STATIC
        ARGFRAME DOVERLAY, 0, STATIC
        EXTERN HalLedSet
        FUNCTION HalLedSet,0202H
        ARGFRAME ISTACK, 0, STACK
        ARGFRAME PSTACK, 0, STACK
        ARGFRAME XSTACK, 24, STACK
        ARGFRAME IOVERLAY, 0, STATIC
        ARGFRAME DOVERLAY, 0, STATIC
        EXTERN HalUARTOpen
        FUNCTION HalUARTOpen,0202H
        ARGFRAME ISTACK, 0, STACK
        ARGFRAME PSTACK, 0, STACK
        ARGFRAME XSTACK, 43, STACK
        ARGFRAME IOVERLAY, 0, STATIC
        ARGFRAME DOVERLAY, 0, STATIC
        EXTERN HalUARTRead
        FUNCTION HalUARTRead,0202H
        ARGFRAME ISTACK, 0, STACK
        ARGFRAME PSTACK, 0, STACK
        ARGFRAME XSTACK, 10, STACK
        ARGFRAME IOVERLAY, 0, STATIC
        ARGFRAME DOVERLAY, 0, STATIC
        EXTERN HalUARTWrite
        FUNCTION HalUARTWrite,0202H
        ARGFRAME ISTACK, 0, STACK
        ARGFRAME PSTACK, 0, STACK
        ARGFRAME XSTACK, 43, STACK
        ARGFRAME IOVERLAY, 0, STATIC
        ARGFRAME DOVERLAY, 0, STATIC
        EXTERN NLME_GetShortAddr
        FUNCTION NLME_GetShortAddr,0202H
        ARGFRAME ISTACK, 0, STACK
        ARGFRAME PSTACK, 0, STACK
        ARGFRAME XSTACK, 33, STACK
        ARGFRAME IOVERLAY, 0, STATIC
        ARGFRAME DOVERLAY, 0, STATIC
        EXTERN RegisterForKeys
        FUNCTION RegisterForKeys,0202H
        ARGFRAME ISTACK, 0, STACK
        ARGFRAME PSTACK, 0, STACK
        ARGFRAME XSTACK, 43, STACK
        ARGFRAME IOVERLAY, 0, STATIC
        ARGFRAME DOVERLAY, 0, STATIC
        EXTERN ZDO_ParseEPListRsp
        FUNCTION ZDO_ParseEPListRsp,0202H
        ARGFRAME ISTACK, 0, STACK
        ARGFRAME PSTACK, 0, STACK
        ARGFRAME XSTACK, 24, STACK
        ARGFRAME IOVERLAY, 0, STATIC
        ARGFRAME DOVERLAY, 0, STATIC
        EXTERN ZDO_RegisterForZDOMsg
        FUNCTION ZDO_RegisterForZDOMsg,0202H
        ARGFRAME ISTACK, 0, STACK
        ARGFRAME PSTACK, 0, STACK
        ARGFRAME XSTACK, 43, STACK
        ARGFRAME IOVERLAY, 0, STATIC
        ARGFRAME DOVERLAY, 0, STATIC
        EXTERN ZDP_EndDeviceBindReq
        FUNCTION ZDP_EndDeviceBindReq,0202H
        ARGFRAME ISTACK, 0, STACK
        ARGFRAME PSTACK, 0, STACK
        ARGFRAME XSTACK, 33, STACK
        ARGFRAME IOVERLAY, 0, STATIC
        ARGFRAME DOVERLAY, 0, STATIC
        EXTERN ZDP_MatchDescReq
        FUNCTION ZDP_MatchDescReq,0202H
        ARGFRAME ISTACK, 0, STACK
        ARGFRAME PSTACK, 0, STACK
        ARGFRAME XSTACK, 32, STACK
        ARGFRAME IOVERLAY, 0, STATIC
        ARGFRAME DOVERLAY, 0, STATIC
        EXTERN afRegister
        FUNCTION afRegister,0202H
        ARGFRAME ISTACK, 0, STACK
        ARGFRAME PSTACK, 0, STACK
        ARGFRAME XSTACK, 43, STACK
        ARGFRAME IOVERLAY, 0, STATIC
        ARGFRAME DOVERLAY, 0, STATIC
        EXTERN osal_mem_free
        FUNCTION osal_mem_free,0202H
        ARGFRAME ISTACK, 0, STACK
        ARGFRAME PSTACK, 0, STACK
        ARGFRAME XSTACK, 24, STACK
        ARGFRAME IOVERLAY, 0, STATIC
        ARGFRAME DOVERLAY, 0, STATIC
        EXTERN osal_memcpy
        FUNCTION osal_memcpy,0202H
        ARGFRAME ISTACK, 0, STACK
        ARGFRAME PSTACK, 0, STACK
        ARGFRAME XSTACK, 15, STACK
        ARGFRAME IOVERLAY, 0, STATIC
        ARGFRAME DOVERLAY, 0, STATIC
        EXTERN osal_msg_deallocate
        FUNCTION osal_msg_deallocate,0202H
        ARGFRAME ISTACK, 0, STACK
        ARGFRAME PSTACK, 0, STACK
        ARGFRAME XSTACK, 24, STACK
        ARGFRAME IOVERLAY, 0, STATIC
        ARGFRAME DOVERLAY, 0, STATIC
        EXTERN osal_msg_receive
        FUNCTION osal_msg_receive,0202H
        ARGFRAME ISTACK, 0, STACK
        ARGFRAME PSTACK, 0, STACK
        ARGFRAME XSTACK, 24, STACK
        ARGFRAME IOVERLAY, 0, STATIC
        ARGFRAME DOVERLAY, 0, STATIC
        EXTERN osal_set_event
        FUNCTION osal_set_event,0202H
        ARGFRAME ISTACK, 0, STACK
        ARGFRAME PSTACK, 0, STACK
        ARGFRAME XSTACK, 24, STACK
        ARGFRAME IOVERLAY, 0, STATIC
        ARGFRAME DOVERLAY, 0, STATIC
        EXTERN osal_start_timerEx
        FUNCTION osal_start_timerEx,0202H
        ARGFRAME ISTACK, 0, STACK
        ARGFRAME PSTACK, 0, STACK
        ARGFRAME XSTACK, 12, STACK
        ARGFRAME IOVERLAY, 0, STATIC
        ARGFRAME DOVERLAY, 0, STATIC
        EXTERN osal_stop_timerEx
        FUNCTION osal_stop_timerEx,0202H
        ARGFRAME ISTACK, 0, STACK
        ARGFRAME PSTACK, 0, STACK
        ARGFRAME XSTACK, 12, STACK
        ARGFRAME IOVERLAY, 0, STATIC
        ARGFRAME DOVERLAY, 0, STATIC

// C:\Users\emwhitmi\Documents\GitHub\RoachZStack\RoachZStack\Source\RoachZStack.c
//    1 /**************************************************************************************************
//    2   Filename:       RoachZStack.c
//    3   Revised:        $Date: 2009-03-29 10:51:47 -0700 (Sun, 29 Mar 2009) $
//    4   Revision:       $Revision: 19585 $
//    5 
//    6   Description -   Serial Transfer Application (no Profile).
//    7 
//    8 
//    9   Copyright 2004-2009 Texas Instruments Incorporated. All rights reserved.
//   10 
//   11   IMPORTANT: Your use of this Software is limited to those specific rights
//   12   granted under the terms of a software license agreement between the user
//   13   who downloaded the software, his/her employer (which must be your employer)
//   14   and Texas Instruments Incorporated (the "License").  You may not use this
//   15   Software unless you agree to abide by the terms of the License. The License
//   16   limits your use, and you acknowledge, that the Software may not be modified,
//   17   copied or distributed unless embedded on a Texas Instruments microcontroller
//   18   or used solely and exclusively in conjunction with a Texas Instruments radio
//   19   frequency transceiver, which is integrated into your product.  Other than for
//   20   the foregoing purpose, you may not use, reproduce, copy, prepare derivative
//   21   works of, modify, distribute, perform, display or sell this Software and/or
//   22   its documentation for any purpose.
//   23 
//   24   YOU FURTHER ACKNOWLEDGE AND AGREE THAT THE SOFTWARE AND DOCUMENTATION ARE
//   25   PROVIDED “AS IS” WITHOUT WARRANTY OF ANY KIND, EITHER EXPRESS OR IMPLIED, 
//   26   INCLUDING WITHOUT LIMITATION, ANY WARRANTY OF MERCHANTABILITY, TITLE, 
//   27   NON-INFRINGEMENT AND FITNESS FOR A PARTICULAR PURPOSE. IN NO EVENT SHALL
//   28   TEXAS INSTRUMENTS OR ITS LICENSORS BE LIABLE OR OBLIGATED UNDER CONTRACT,
//   29   NEGLIGENCE, STRICT LIABILITY, CONTRIBUTION, BREACH OF WARRANTY, OR OTHER
//   30   LEGAL EQUITABLE THEORY ANY DIRECT OR INDIRECT DAMAGES OR EXPENSES
//   31   INCLUDING BUT NOT LIMITED TO ANY INCIDENTAL, SPECIAL, INDIRECT, PUNITIVE
//   32   OR CONSEQUENTIAL DAMAGES, LOST PROFITS OR LOST DATA, COST OF PROCUREMENT
//   33   OF SUBSTITUTE GOODS, TECHNOLOGY, SERVICES, OR ANY CLAIMS BY THIRD PARTIES
//   34   (INCLUDING BUT NOT LIMITED TO ANY DEFENSE THEREOF), OR OTHER SIMILAR COSTS.
//   35 
//   36   Should you have any questions regarding your right to use this Software,
//   37   contact Texas Instruments Incorporated at www.TI.com. 
//   38 **************************************************************************************************/
//   39 
//   40 /*********************************************************************
//   41   This sample application is basically a cable replacement
//   42   and it should be customized for your application. A PC
//   43   (or other device) sends data via the serial port to this
//   44   application's device.  This device transmits the message
//   45   to another device with the same application running. The
//   46   other device receives the over-the-air message and sends
//   47   it to a PC (or other device) connected to its serial port.
//   48 				
//   49   This application doesn't have a profile, so it handles everything directly.
//   50 
//   51   Key control:
//   52     SW1:
//   53     SW2:  initiates end device binding
//   54     SW3:
//   55     SW4:  initiates a match description request
//   56 *********************************************************************/
//   57 
//   58 /*********************************************************************
//   59  * INCLUDES
//   60  */
//   61 
//   62 #include "AF.h"
//   63 #include "OnBoard.h"
//   64 #include "OSAL_Tasks.h"
//   65 #include "RoachZStack.h"
//   66 #include "ZDApp.h"
//   67 #include "ZDObject.h"
//   68 #include "ZDProfile.h"
//   69 
//   70 #include "hal_drivers.h"
//   71 #include "hal_key.h"
//   72 #if defined ( LCD_SUPPORTED )
//   73   #include "hal_lcd.h"
//   74 #endif
//   75 #include "hal_led.h"
//   76 #include "hal_uart.h"
//   77 
//   78 /*********************************************************************
//   79  * MACROS
//   80  */
//   81 
//   82 /*********************************************************************
//   83  * CONSTANTS
//   84  */
//   85 
//   86 #if !defined( SERIAL_APP_PORT )
//   87 #define SERIAL_APP_PORT  0
//   88 #endif
//   89 
//   90 #if !defined( SERIAL_APP_BAUD )
//   91 #define SERIAL_APP_BAUD  HAL_UART_BR_38400
//   92 //#define SERIAL_APP_BAUD  HAL_UART_BR_115200
//   93 #endif
//   94 
//   95 // When the Rx buf space is less than this threshold, invoke the Rx callback.
//   96 #if !defined( SERIAL_APP_THRESH )
//   97 #define SERIAL_APP_THRESH  64
//   98 #endif
//   99 
//  100 #if !defined( SERIAL_APP_RX_SZ )
//  101 #define SERIAL_APP_RX_SZ  128
//  102 #endif
//  103 
//  104 #if !defined( SERIAL_APP_TX_SZ )
//  105 #define SERIAL_APP_TX_SZ  128
//  106 #endif
//  107 
//  108 // Millisecs of idle time after a byte is received before invoking Rx callback.
//  109 #if !defined( SERIAL_APP_IDLE )
//  110 #define SERIAL_APP_IDLE  6
//  111 #endif
//  112 
//  113 // Loopback Rx bytes to Tx for throughput testing.
//  114 #if !defined( SERIAL_APP_LOOPBACK )
//  115 #define SERIAL_APP_LOOPBACK  FALSE
//  116 #endif
//  117 
//  118 // This is the max byte count per OTA message.
//  119 #if !defined( SERIAL_APP_TX_MAX )
//  120 #define SERIAL_APP_TX_MAX  80
//  121 #endif
//  122 
//  123 #define SERIAL_APP_RSP_CNT  4
//  124 
//  125 // This list should be filled with Application specific Cluster IDs.

        RSEG XDATA_ROM_C:CONST:REORDER:NOROOT(0)
        DATA32
//  126 const cId_t RoachZStack_ClusterList[ROACHZSTACK_MAX_CLUSTERS] =
RoachZStack_ClusterList:
        DATA16
        DW 1
        DW 2
//  127 {
//  128   ROACHZSTACK_CLUSTERID1,
//  129   ROACHZSTACK_CLUSTERID2
//  130 };
//  131 

        RSEG XDATA_ROM_C:CONST:REORDER:NOROOT(0)
        DATA8
//  132 const SimpleDescriptionFormat_t RoachZStack_SimpleDesc =
RoachZStack_SimpleDesc:
        DB 11
        DATA16
        DW 3845
        DW 1
        DATA8
        DB 0
        DB 2
        DATA16
        DW RoachZStack_ClusterList
        DATA8
        DB 2
        DATA16
        DW RoachZStack_ClusterList
//  133 {
//  134   ROACHZSTACK_ENDPOINT,              //  int   Endpoint;
//  135   ROACHZSTACK_PROFID,                //  uint16 AppProfId[2];
//  136   ROACHZSTACK_DEVICEID,              //  uint16 AppDeviceId[2];
//  137   ROACHZSTACK_DEVICE_VERSION,        //  int   AppDevVer:4;
//  138   ROACHZSTACK_FLAGS,                 //  int   AppFlags:4;
//  139   ROACHZSTACK_MAX_CLUSTERS,          //  byte  AppNumInClusters;
//  140   (cId_t *)RoachZStack_ClusterList,  //  byte *pAppInClusterList;
//  141   ROACHZSTACK_MAX_CLUSTERS,          //  byte  AppNumOutClusters;
//  142   (cId_t *)RoachZStack_ClusterList   //  byte *pAppOutClusterList;
//  143 };
//  144 

        RSEG XDATA_ROM_C:CONST:REORDER:NOROOT(0)
        DATA8
//  145 const endPointDesc_t RoachZStack_epDesc =
RoachZStack_epDesc:
        DB 11
        DATA16
        DW RoachZStack_TaskID
        DW RoachZStack_SimpleDesc
        DATA8
        DB 0
//  146 {
//  147   ROACHZSTACK_ENDPOINT,
//  148  &RoachZStack_TaskID,
//  149   (SimpleDescriptionFormat_t *)&RoachZStack_SimpleDesc,
//  150   noLatencyReqs
//  151 };
//  152 
//  153 /*********************************************************************
//  154  * TYPEDEFS
//  155  */
//  156 
//  157 /*********************************************************************
//  158  * GLOBAL VARIABLES
//  159  */
//  160 

        RSEG XDATA_Z:XDATA:NOROOT(0)
        DATA8
//  161 uint8 RoachZStack_TaskID;    // Task ID for internal task/event processing.
RoachZStack_TaskID:
        DS 1
        REQUIRE __INIT_XDATA_Z
//  162 
//  163 /*********************************************************************
//  164  * EXTERNAL VARIABLES
//  165  */
//  166 
//  167 /*********************************************************************
//  168  * EXTERNAL FUNCTIONS
//  169  */
//  170 
//  171 /*********************************************************************
//  172  * LOCAL VARIABLES
//  173  */
//  174 

        RSEG XDATA_Z:XDATA:NOROOT(0)
        DATA8
//  175 static uint8 RoachZStack_MsgID;
RoachZStack_MsgID:
        DS 1
        REQUIRE __INIT_XDATA_Z
//  176 

        RSEG XDATA_Z:XDATA:NOROOT(0)
        DATA8
//  177 static afAddrType_t RoachZStack_TxAddr;
RoachZStack_TxAddr:
        DS 12
        REQUIRE __INIT_XDATA_Z

        RSEG XDATA_Z:XDATA:NOROOT(0)
        DATA8
//  178 static uint8 RoachZStack_TxSeq;
RoachZStack_TxSeq:
        DS 1
        REQUIRE __INIT_XDATA_Z

        RSEG XDATA_Z:XDATA:NOROOT(0)
        DATA8
//  179 static uint8 RoachZStack_TxBuf[SERIAL_APP_TX_MAX+1];
RoachZStack_TxBuf:
        DS 81
        REQUIRE __INIT_XDATA_Z

        RSEG XDATA_Z:XDATA:NOROOT(0)
        DATA8
//  180 static uint8 RoachZStack_TxLen;
RoachZStack_TxLen:
        DS 1
        REQUIRE __INIT_XDATA_Z
//  181 

        RSEG XDATA_Z:XDATA:NOROOT(0)
        DATA8
//  182 static afAddrType_t RoachZStack_RxAddr;
RoachZStack_RxAddr:
        DS 12
        REQUIRE __INIT_XDATA_Z

        RSEG XDATA_Z:XDATA:NOROOT(0)
        DATA8
//  183 static uint8 RoachZStack_RxSeq;
RoachZStack_RxSeq:
        DS 1
        REQUIRE __INIT_XDATA_Z

        RSEG XDATA_Z:XDATA:NOROOT(0)
        DATA32
//  184 static uint8 RoachZStack_RspBuf[SERIAL_APP_RSP_CNT];
RoachZStack_RspBuf:
        DS 4
        REQUIRE __INIT_XDATA_Z
//  185 
//  186 /*********************************************************************
//  187  * LOCAL FUNCTIONS
//  188  */
//  189 
//  190 static void RoachZStack_ProcessZDOMsgs( zdoIncomingMsg_t *inMsg );
//  191 static void RoachZStack_HandleKeys( uint8 shift, uint8 keys );
//  192 static void RoachZStack_ProcessMSGCmd( afIncomingMSGPacket_t *pkt );
//  193 static void RoachZStack_Send(void);
//  194 static void RoachZStack_Resp(void);
//  195 static void RoachZStack_CallBack(uint8 port, uint8 event);
//  196 
//  197 /*********************************************************************
//  198  * @fn      RoachZStack_Init
//  199  *
//  200  * @brief   This is called during OSAL tasks' initialization.
//  201  *
//  202  * @param   task_id - the Task ID assigned by OSAL.
//  203  *
//  204  * @return  none
//  205  */

        RSEG BANKED_CODE:CODE:NOROOT(0)
//  206 void RoachZStack_Init( uint8 task_id )
RoachZStack_Init:
          CFI Block cfiBlock0 Using cfiCommon0
          CFI Function RoachZStack_Init
        CODE
//  207 {
        FUNCALL RoachZStack_Init, afRegister
        LOCFRAME ISTACK, 0, STACK
        LOCFRAME PSTACK, 0, STACK
        LOCFRAME XSTACK, 43, STACK
        LOCFRAME IOVERLAY, 0, STATIC
        LOCFRAME DOVERLAY, 0, STATIC
        ARGFRAME ISTACK, 0, STACK
        ARGFRAME PSTACK, 0, STACK
        ARGFRAME XSTACK, 43, STACK
        ARGFRAME IOVERLAY, 0, STATIC
        ARGFRAME DOVERLAY, 0, STATIC
        FUNCALL RoachZStack_Init, RegisterForKeys
        LOCFRAME ISTACK, 0, STACK
        LOCFRAME PSTACK, 0, STACK
        LOCFRAME XSTACK, 43, STACK
        LOCFRAME IOVERLAY, 0, STATIC
        LOCFRAME DOVERLAY, 0, STATIC
        ARGFRAME ISTACK, 0, STACK
        ARGFRAME PSTACK, 0, STACK
        ARGFRAME XSTACK, 43, STACK
        ARGFRAME IOVERLAY, 0, STATIC
        ARGFRAME DOVERLAY, 0, STATIC
        FUNCALL RoachZStack_Init, HalUARTOpen
        LOCFRAME ISTACK, 0, STACK
        LOCFRAME PSTACK, 0, STACK
        LOCFRAME XSTACK, 43, STACK
        LOCFRAME IOVERLAY, 0, STATIC
        LOCFRAME DOVERLAY, 0, STATIC
        ARGFRAME ISTACK, 0, STACK
        ARGFRAME PSTACK, 0, STACK
        ARGFRAME XSTACK, 43, STACK
        ARGFRAME IOVERLAY, 0, STATIC
        ARGFRAME DOVERLAY, 0, STATIC
        FUNCALL RoachZStack_Init, HalLcdWriteString
        LOCFRAME ISTACK, 0, STACK
        LOCFRAME PSTACK, 0, STACK
        LOCFRAME XSTACK, 43, STACK
        LOCFRAME IOVERLAY, 0, STATIC
        LOCFRAME DOVERLAY, 0, STATIC
        ARGFRAME ISTACK, 0, STACK
        ARGFRAME PSTACK, 0, STACK
        ARGFRAME XSTACK, 43, STACK
        ARGFRAME IOVERLAY, 0, STATIC
        ARGFRAME DOVERLAY, 0, STATIC
        FUNCALL RoachZStack_Init, ZDO_RegisterForZDOMsg
        LOCFRAME ISTACK, 0, STACK
        LOCFRAME PSTACK, 0, STACK
        LOCFRAME XSTACK, 43, STACK
        LOCFRAME IOVERLAY, 0, STATIC
        LOCFRAME DOVERLAY, 0, STATIC
        ARGFRAME ISTACK, 0, STACK
        ARGFRAME PSTACK, 0, STACK
        ARGFRAME XSTACK, 43, STACK
        ARGFRAME IOVERLAY, 0, STATIC
        ARGFRAME DOVERLAY, 0, STATIC
        FUNCALL RoachZStack_Init, ZDO_RegisterForZDOMsg
        LOCFRAME ISTACK, 0, STACK
        LOCFRAME PSTACK, 0, STACK
        LOCFRAME XSTACK, 43, STACK
        LOCFRAME IOVERLAY, 0, STATIC
        LOCFRAME DOVERLAY, 0, STATIC
        ARGFRAME ISTACK, 0, STACK
        ARGFRAME PSTACK, 0, STACK
        ARGFRAME XSTACK, 43, STACK
        ARGFRAME IOVERLAY, 0, STATIC
        ARGFRAME DOVERLAY, 0, STATIC
        FUNCALL RoachZStack_Init, HalUARTWrite
        LOCFRAME ISTACK, 0, STACK
        LOCFRAME PSTACK, 0, STACK
        LOCFRAME XSTACK, 43, STACK
        LOCFRAME IOVERLAY, 0, STATIC
        LOCFRAME DOVERLAY, 0, STATIC
        ARGFRAME ISTACK, 0, STACK
        ARGFRAME PSTACK, 0, STACK
        ARGFRAME XSTACK, 43, STACK
        ARGFRAME IOVERLAY, 0, STATIC
        ARGFRAME DOVERLAY, 0, STATIC
        MOV     A,#-0x9
        LCALL   ?BANKED_ENTER_XDATA
          CFI DPH0 load(1, XDATA, add(CFA_XSP16, literal(-1)))
          CFI DPL0 load(1, XDATA, add(CFA_XSP16, literal(-2)))
          CFI ?BRET_EXT load(1, XDATA, add(CFA_XSP16, literal(-3)))
          CFI ?RET_HIGH load(1, XDATA, add(CFA_XSP16, literal(-4)))
          CFI ?RET_LOW load(1, XDATA, add(CFA_XSP16, literal(-5)))
          CFI R7 load(1, XDATA, add(CFA_XSP16, literal(-6)))
          CFI V0 load(1, XDATA, add(CFA_XSP16, literal(-7)))
          CFI VB load(1, XDATA, add(CFA_XSP16, literal(-8)))
          CFI R6 load(1, XDATA, add(CFA_XSP16, literal(-9)))
          CFI CFA_SP SP+0
          CFI CFA_XSP16 add(XSP16, 9)
        ; Saved register size: 9
        ; Auto size: 34
        MOV     A,#-0x22
        LCALL   ?ALLOC_XSTACK8
          CFI CFA_XSP16 add(XSP16, 43)
        MOV     A,R1
        MOV     R6,A
//  208   halUARTCfg_t uartConfig;
//  209 
//  210   RoachZStack_TaskID = task_id;
        MOV     DPTR,#RoachZStack_TaskID
        MOVX    @DPTR,A
//  211   RoachZStack_RxSeq = 0xC3;
        MOV     DPTR,#RoachZStack_RxSeq
        MOV     A,#-0x3d
        MOVX    @DPTR,A
//  212 
//  213   afRegister( (endPointDesc_t *)&RoachZStack_epDesc );
        ; Setup parameters for call to function afRegister
        MOV     R2,#RoachZStack_epDesc & 0xff
        MOV     R3,#(RoachZStack_epDesc >> 8) & 0xff
        LCALL   ??afRegister?relay
//  214 
//  215   RegisterForKeys( task_id );
        ; Setup parameters for call to function RegisterForKeys
        MOV     A,R6
        MOV     R1,A
        LCALL   ??RegisterForKeys?relay
//  216 
//  217   uartConfig.configured           = TRUE;              // 2x30 don't care - see uart driver.
        MOV     A,#0x5
        LCALL   ?XSTACK_DISP0_8
        MOV     A,#0x1
        MOVX    @DPTR,A
//  218   uartConfig.baudRate             = SERIAL_APP_BAUD;
        MOV     A,#0x6
        LCALL   ?XSTACK_DISP0_8
        MOV     A,#0x2
        MOVX    @DPTR,A
//  219   uartConfig.flowControl          = TRUE;
        MOV     A,#0x7
        LCALL   ?XSTACK_DISP0_8
        MOV     A,#0x1
        MOVX    @DPTR,A
//  220   uartConfig.flowControlThreshold = SERIAL_APP_THRESH; // 2x30 don't care - see uart driver.
        MOV     A,#0x8
        LCALL   ?XSTACK_DISP0_8
        MOV     A,#0x40
        MOVX    @DPTR,A
        INC     DPTR
        CLR     A
        MOVX    @DPTR,A
//  221   uartConfig.rx.maxBufSize        = SERIAL_APP_RX_SZ;  // 2x30 don't care - see uart driver.
        MOV     A,#0xf
        LCALL   ?XSTACK_DISP0_8
        MOV     A,#-0x80
        MOVX    @DPTR,A
        INC     DPTR
        CLR     A
        MOVX    @DPTR,A
//  222   uartConfig.tx.maxBufSize        = SERIAL_APP_TX_SZ;  // 2x30 don't care - see uart driver.
        MOV     A,#0x17
        LCALL   ?XSTACK_DISP0_8
        MOV     A,#-0x80
        MOVX    @DPTR,A
        INC     DPTR
        CLR     A
        MOVX    @DPTR,A
//  223   uartConfig.idleTimeout          = SERIAL_APP_IDLE;   // 2x30 don't care - see uart driver.
        MOV     A,#0xa
        LCALL   ?XSTACK_DISP0_8
        MOV     A,#0x6
        MOVX    @DPTR,A
//  224   uartConfig.intEnable            = TRUE;              // 2x30 don't care - see uart driver.
        MOV     A,#0x1b
        LCALL   ?XSTACK_DISP0_8
        MOV     A,#0x1
        MOVX    @DPTR,A
//  225   uartConfig.callBackFunc         = RoachZStack_CallBack;
        MOV     A,#0x20
        LCALL   ?XSTACK_DISP0_8
        MOV     A,#??RoachZStack_CallBack?relay & 0xff
        MOVX    @DPTR,A
        INC     DPTR
        MOV     A,#(??RoachZStack_CallBack?relay >> 8) & 0xff
        MOVX    @DPTR,A
//  226   HalUARTOpen (SERIAL_APP_PORT, &uartConfig);
        ; Setup parameters for call to function HalUARTOpen
        MOV     A,#0x5
        LCALL   ?XSTACK_DISP0_8
        MOV     R2,DPL
        MOV     R3,DPH
        MOV     R1,#0x0
        LCALL   ??HalUARTOpen?relay
//  227 
//  228 #if defined ( LCD_SUPPORTED )
//  229   HalLcdWriteString( "RoachZStack", HAL_LCD_LINE_2 );
        ; Setup parameters for call to function HalLcdWriteString
        MOV     R1,#0x2
        MOV     R2,#`?<Constant "RoachZStack">` & 0xff
        MOV     R3,#(`?<Constant "RoachZStack">` >> 8) & 0xff
        LCALL   ??HalLcdWriteString?relay
//  230 #endif
//  231   
//  232   ZDO_RegisterForZDOMsg( RoachZStack_TaskID, End_Device_Bind_rsp );
        ; Setup parameters for call to function ZDO_RegisterForZDOMsg
        MOV     R2,#0x20
        MOV     R3,#-0x80
        MOV     DPTR,#RoachZStack_TaskID
        MOVX    A,@DPTR
        MOV     R1,A
        LCALL   ??ZDO_RegisterForZDOMsg?relay
//  233   ZDO_RegisterForZDOMsg( RoachZStack_TaskID, Match_Desc_rsp );
        ; Setup parameters for call to function ZDO_RegisterForZDOMsg
        MOV     R2,#0x6
        MOV     R3,#-0x80
        MOV     DPTR,#RoachZStack_TaskID
        MOVX    A,@DPTR
        MOV     R1,A
        LCALL   ??ZDO_RegisterForZDOMsg?relay
//  234   
//  235   byte buf[5] = {1,2,3,4,5};
        MOV     DPL,?XSP + 0
        MOV     DPH,?XSP + 1
        MOV     R4,DPL
        MOV     R5,DPH
        MOV     DPH,#(`?<Constant {1, 2, 3, 4, 5}>` >> 8) & 0xff
        MOV     DPL,#`?<Constant {1, 2, 3, 4, 5}>` & 0xff
        MOV     A,#0x5
        LCALL   ?MOVE_LONG8_XDATA_XDATA
//  236   HalUARTWrite (SERIAL_APP_PORT, buf, sizeof(buf));
        ; Setup parameters for call to function HalUARTWrite
        MOV     R4,#0x5
        MOV     R5,A
        MOV     DPL,?XSP + 0
        MOV     DPH,?XSP + 1
        MOV     R2,DPL
        MOV     R3,DPH
        MOV     R1,A
        LCALL   ??HalUARTWrite?relay
//  237 }
        MOV     A,#0x22
        LCALL   ?DEALLOC_XSTACK8
          CFI EndBlock cfiBlock0
        REQUIRE ?Subroutine0
        ; // Fall through to label ?Subroutine0

        RSEG BANKED_CODE:CODE:NOROOT(0)
?Subroutine0:
          CFI Block cfiBlock1 Using cfiCommon0
          CFI NoFunction
          CFI CFA_SP SP+0
          CFI CFA_XSP16 add(XSP16, 9)
          CFI VB load(1, XDATA, add(CFA_XSP16, literal(-8)))
          CFI DPL0 load(1, XDATA, add(CFA_XSP16, literal(-2)))
          CFI DPH0 load(1, XDATA, add(CFA_XSP16, literal(-1)))
          CFI R6 load(1, XDATA, add(CFA_XSP16, literal(-9)))
          CFI R7 load(1, XDATA, add(CFA_XSP16, literal(-6)))
          CFI V0 load(1, XDATA, add(CFA_XSP16, literal(-7)))
          CFI ?BRET_EXT load(1, XDATA, add(CFA_XSP16, literal(-3)))
          CFI ?RET_HIGH load(1, XDATA, add(CFA_XSP16, literal(-4)))
          CFI ?RET_LOW load(1, XDATA, add(CFA_XSP16, literal(-5)))
        MOV     R7,#0x1
        LJMP    ?BANKED_LEAVE_XDATA
          CFI EndBlock cfiBlock1
//  238 
//  239 /*********************************************************************
//  240  * @fn      RoachZStack_ProcessEvent
//  241  *
//  242  * @brief   Generic Application Task event processor.
//  243  *
//  244  * @param   task_id  - The OSAL assigned task ID.
//  245  * @param   events   - Bit map of events to process.
//  246  *
//  247  * @return  Event flags of all unprocessed events.
//  248  */

        RSEG BANKED_CODE:CODE:NOROOT(0)
//  249 UINT16 RoachZStack_ProcessEvent( uint8 task_id, UINT16 events )
RoachZStack_ProcessEvent:
          CFI Block cfiBlock2 Using cfiCommon0
          CFI Function RoachZStack_ProcessEvent
        CODE
//  250 {
        FUNCALL RoachZStack_ProcessEvent, RoachZStack_Send
        LOCFRAME ISTACK, 0, STACK
        LOCFRAME PSTACK, 0, STACK
        LOCFRAME XSTACK, 24, STACK
        LOCFRAME IOVERLAY, 0, STATIC
        LOCFRAME DOVERLAY, 0, STATIC
        ARGFRAME ISTACK, 0, STACK
        ARGFRAME PSTACK, 0, STACK
        ARGFRAME XSTACK, 24, STACK
        ARGFRAME IOVERLAY, 0, STATIC
        ARGFRAME DOVERLAY, 0, STATIC
        FUNCALL RoachZStack_ProcessEvent, RoachZStack_ProcessMSGCmd
        LOCFRAME ISTACK, 0, STACK
        LOCFRAME PSTACK, 0, STACK
        LOCFRAME XSTACK, 24, STACK
        LOCFRAME IOVERLAY, 0, STATIC
        LOCFRAME DOVERLAY, 0, STATIC
        ARGFRAME ISTACK, 0, STACK
        ARGFRAME PSTACK, 0, STACK
        ARGFRAME XSTACK, 24, STACK
        ARGFRAME IOVERLAY, 0, STATIC
        ARGFRAME DOVERLAY, 0, STATIC
        FUNCALL RoachZStack_ProcessEvent, osal_msg_deallocate
        LOCFRAME ISTACK, 0, STACK
        LOCFRAME PSTACK, 0, STACK
        LOCFRAME XSTACK, 24, STACK
        LOCFRAME IOVERLAY, 0, STATIC
        LOCFRAME DOVERLAY, 0, STATIC
        ARGFRAME ISTACK, 0, STACK
        ARGFRAME PSTACK, 0, STACK
        ARGFRAME XSTACK, 24, STACK
        ARGFRAME IOVERLAY, 0, STATIC
        ARGFRAME DOVERLAY, 0, STATIC
        FUNCALL RoachZStack_ProcessEvent, osal_msg_receive
        LOCFRAME ISTACK, 0, STACK
        LOCFRAME PSTACK, 0, STACK
        LOCFRAME XSTACK, 24, STACK
        LOCFRAME IOVERLAY, 0, STATIC
        LOCFRAME DOVERLAY, 0, STATIC
        ARGFRAME ISTACK, 0, STACK
        ARGFRAME PSTACK, 0, STACK
        ARGFRAME XSTACK, 24, STACK
        ARGFRAME IOVERLAY, 0, STATIC
        ARGFRAME DOVERLAY, 0, STATIC
        FUNCALL RoachZStack_ProcessEvent, ZDO_ParseEPListRsp
        LOCFRAME ISTACK, 0, STACK
        LOCFRAME PSTACK, 0, STACK
        LOCFRAME XSTACK, 24, STACK
        LOCFRAME IOVERLAY, 0, STATIC
        LOCFRAME DOVERLAY, 0, STATIC
        ARGFRAME ISTACK, 0, STACK
        ARGFRAME PSTACK, 0, STACK
        ARGFRAME XSTACK, 24, STACK
        ARGFRAME IOVERLAY, 0, STATIC
        ARGFRAME DOVERLAY, 0, STATIC
        FUNCALL RoachZStack_ProcessEvent, HalLedSet
        LOCFRAME ISTACK, 0, STACK
        LOCFRAME PSTACK, 0, STACK
        LOCFRAME XSTACK, 24, STACK
        LOCFRAME IOVERLAY, 0, STATIC
        LOCFRAME DOVERLAY, 0, STATIC
        ARGFRAME ISTACK, 0, STACK
        ARGFRAME PSTACK, 0, STACK
        ARGFRAME XSTACK, 24, STACK
        ARGFRAME IOVERLAY, 0, STATIC
        ARGFRAME DOVERLAY, 0, STATIC
        FUNCALL RoachZStack_ProcessEvent, osal_mem_free
        LOCFRAME ISTACK, 0, STACK
        LOCFRAME PSTACK, 0, STACK
        LOCFRAME XSTACK, 24, STACK
        LOCFRAME IOVERLAY, 0, STATIC
        LOCFRAME DOVERLAY, 0, STATIC
        ARGFRAME ISTACK, 0, STACK
        ARGFRAME PSTACK, 0, STACK
        ARGFRAME XSTACK, 24, STACK
        ARGFRAME IOVERLAY, 0, STATIC
        ARGFRAME DOVERLAY, 0, STATIC
        FUNCALL RoachZStack_ProcessEvent, HalLedSet
        LOCFRAME ISTACK, 0, STACK
        LOCFRAME PSTACK, 0, STACK
        LOCFRAME XSTACK, 24, STACK
        LOCFRAME IOVERLAY, 0, STATIC
        LOCFRAME DOVERLAY, 0, STATIC
        ARGFRAME ISTACK, 0, STACK
        ARGFRAME PSTACK, 0, STACK
        ARGFRAME XSTACK, 24, STACK
        ARGFRAME IOVERLAY, 0, STATIC
        ARGFRAME DOVERLAY, 0, STATIC
        FUNCALL RoachZStack_ProcessEvent, HalLedSet
        LOCFRAME ISTACK, 0, STACK
        LOCFRAME PSTACK, 0, STACK
        LOCFRAME XSTACK, 24, STACK
        LOCFRAME IOVERLAY, 0, STATIC
        LOCFRAME DOVERLAY, 0, STATIC
        ARGFRAME ISTACK, 0, STACK
        ARGFRAME PSTACK, 0, STACK
        ARGFRAME XSTACK, 24, STACK
        ARGFRAME IOVERLAY, 0, STATIC
        ARGFRAME DOVERLAY, 0, STATIC
        FUNCALL RoachZStack_ProcessEvent, HalLedSet
        LOCFRAME ISTACK, 0, STACK
        LOCFRAME PSTACK, 0, STACK
        LOCFRAME XSTACK, 24, STACK
        LOCFRAME IOVERLAY, 0, STATIC
        LOCFRAME DOVERLAY, 0, STATIC
        ARGFRAME ISTACK, 0, STACK
        ARGFRAME PSTACK, 0, STACK
        ARGFRAME XSTACK, 24, STACK
        ARGFRAME IOVERLAY, 0, STATIC
        ARGFRAME DOVERLAY, 0, STATIC
        FUNCALL RoachZStack_ProcessEvent, NLME_GetShortAddr
        LOCFRAME ISTACK, 0, STACK
        LOCFRAME PSTACK, 0, STACK
        LOCFRAME XSTACK, 33, STACK
        LOCFRAME IOVERLAY, 0, STATIC
        LOCFRAME DOVERLAY, 0, STATIC
        ARGFRAME ISTACK, 0, STACK
        ARGFRAME PSTACK, 0, STACK
        ARGFRAME XSTACK, 33, STACK
        ARGFRAME IOVERLAY, 0, STATIC
        ARGFRAME DOVERLAY, 0, STATIC
        FUNCALL RoachZStack_ProcessEvent, ZDP_EndDeviceBindReq
        LOCFRAME ISTACK, 0, STACK
        LOCFRAME PSTACK, 0, STACK
        LOCFRAME XSTACK, 33, STACK
        LOCFRAME IOVERLAY, 0, STATIC
        LOCFRAME DOVERLAY, 0, STATIC
        ARGFRAME ISTACK, 0, STACK
        ARGFRAME PSTACK, 0, STACK
        ARGFRAME XSTACK, 33, STACK
        ARGFRAME IOVERLAY, 0, STATIC
        ARGFRAME DOVERLAY, 0, STATIC
        FUNCALL RoachZStack_ProcessEvent, HalLedSet
        LOCFRAME ISTACK, 0, STACK
        LOCFRAME PSTACK, 0, STACK
        LOCFRAME XSTACK, 24, STACK
        LOCFRAME IOVERLAY, 0, STATIC
        LOCFRAME DOVERLAY, 0, STATIC
        ARGFRAME ISTACK, 0, STACK
        ARGFRAME PSTACK, 0, STACK
        ARGFRAME XSTACK, 24, STACK
        ARGFRAME IOVERLAY, 0, STATIC
        ARGFRAME DOVERLAY, 0, STATIC
        FUNCALL RoachZStack_ProcessEvent, ZDP_MatchDescReq
        LOCFRAME ISTACK, 0, STACK
        LOCFRAME PSTACK, 0, STACK
        LOCFRAME XSTACK, 32, STACK
        LOCFRAME IOVERLAY, 0, STATIC
        LOCFRAME DOVERLAY, 0, STATIC
        ARGFRAME ISTACK, 0, STACK
        ARGFRAME PSTACK, 0, STACK
        ARGFRAME XSTACK, 32, STACK
        ARGFRAME IOVERLAY, 0, STATIC
        ARGFRAME DOVERLAY, 0, STATIC
        FUNCALL RoachZStack_ProcessEvent, AF_DataRequest
        LOCFRAME ISTACK, 0, STACK
        LOCFRAME PSTACK, 0, STACK
        LOCFRAME XSTACK, 33, STACK
        LOCFRAME IOVERLAY, 0, STATIC
        LOCFRAME DOVERLAY, 0, STATIC
        ARGFRAME ISTACK, 0, STACK
        ARGFRAME PSTACK, 0, STACK
        ARGFRAME XSTACK, 33, STACK
        ARGFRAME IOVERLAY, 0, STATIC
        ARGFRAME DOVERLAY, 0, STATIC
        FUNCALL RoachZStack_ProcessEvent, osal_set_event
        LOCFRAME ISTACK, 0, STACK
        LOCFRAME PSTACK, 0, STACK
        LOCFRAME XSTACK, 24, STACK
        LOCFRAME IOVERLAY, 0, STATIC
        LOCFRAME DOVERLAY, 0, STATIC
        ARGFRAME ISTACK, 0, STACK
        ARGFRAME PSTACK, 0, STACK
        ARGFRAME XSTACK, 24, STACK
        ARGFRAME IOVERLAY, 0, STATIC
        ARGFRAME DOVERLAY, 0, STATIC
        MOV     A,#-0xf
        LCALL   ?BANKED_ENTER_XDATA
          CFI DPH0 load(1, XDATA, add(CFA_XSP16, literal(-1)))
          CFI DPL0 load(1, XDATA, add(CFA_XSP16, literal(-2)))
          CFI ?BRET_EXT load(1, XDATA, add(CFA_XSP16, literal(-3)))
          CFI ?RET_HIGH load(1, XDATA, add(CFA_XSP16, literal(-4)))
          CFI ?RET_LOW load(1, XDATA, add(CFA_XSP16, literal(-5)))
          CFI R7 load(1, XDATA, add(CFA_XSP16, literal(-6)))
          CFI V6 load(1, XDATA, add(CFA_XSP16, literal(-7)))
          CFI V5 load(1, XDATA, add(CFA_XSP16, literal(-8)))
          CFI V4 load(1, XDATA, add(CFA_XSP16, literal(-9)))
          CFI V3 load(1, XDATA, add(CFA_XSP16, literal(-10)))
          CFI V2 load(1, XDATA, add(CFA_XSP16, literal(-11)))
          CFI V1 load(1, XDATA, add(CFA_XSP16, literal(-12)))
          CFI V0 load(1, XDATA, add(CFA_XSP16, literal(-13)))
          CFI VB load(1, XDATA, add(CFA_XSP16, literal(-14)))
          CFI R6 load(1, XDATA, add(CFA_XSP16, literal(-15)))
          CFI CFA_SP SP+0
          CFI CFA_XSP16 add(XSP16, 15)
        ; Saved register size: 15
        ; Auto size: 9
        MOV     A,#-0x9
        LCALL   ?ALLOC_XSTACK8
          CFI CFA_XSP16 add(XSP16, 24)
        MOV     ?V0 + 0,R2
        MOV     ?V0 + 1,R3
//  251   (void)task_id;  // Intentionally unreferenced parameter
//  252   
//  253   if ( events & SYS_EVENT_MSG )
        MOV     A,R3
        ANL     A,#0x80
        JNZ     ??RoachZStack_ProcessEvent_0
//  254   {
//  255     afIncomingMSGPacket_t *MSGpkt;
//  256 
//  257     while ( (MSGpkt = (afIncomingMSGPacket_t *)osal_msg_receive( RoachZStack_TaskID )) )
//  258     {
//  259       switch ( MSGpkt->hdr.event )
//  260       {
//  261       case ZDO_CB_MSG:
//  262         RoachZStack_ProcessZDOMsgs( (zdoIncomingMsg_t *)MSGpkt );
//  263         break;
//  264           
//  265       case KEY_CHANGE:
//  266         RoachZStack_HandleKeys( ((keyChange_t *)MSGpkt)->state, ((keyChange_t *)MSGpkt)->keys );
//  267         break;
//  268 
//  269       case AF_INCOMING_MSG_CMD:
//  270         RoachZStack_ProcessMSGCmd( MSGpkt );
//  271         break;
//  272 
//  273       default:
//  274         break;
//  275       }
//  276 
//  277       osal_msg_deallocate( (uint8 *)MSGpkt );
//  278     }
//  279 
//  280     return ( events ^ SYS_EVENT_MSG );
//  281   }
//  282 
//  283   if ( events & ROACHZSTACK_SEND_EVT )
        MOV     A,R2
        MOV     C,0xE0 /* A   */.0
        JC      $+5
        LJMP    ??RoachZStack_ProcessEvent_1 & 0xFFFF
//  284   {
//  285     RoachZStack_Send();
        ; Setup parameters for call to function RoachZStack_Send
        LCALL   ??RoachZStack_Send?relay
//  286     return ( events ^ ROACHZSTACK_SEND_EVT );
        MOV     A,?V0 + 0
        XRL     A,#0x1
        LJMP    ??RoachZStack_ProcessEvent_2 & 0xFFFF
//  287   }
??RoachZStack_ProcessEvent_3:
        ; Setup parameters for call to function RoachZStack_ProcessMSGCmd
        LCALL   ??RoachZStack_ProcessMSGCmd?relay
??RoachZStack_ProcessEvent_4:
        ; Setup parameters for call to function osal_msg_deallocate
        MOV     R2,?V0 + 2
        MOV     R3,?V0 + 3
        LCALL   ??osal_msg_deallocate?relay
??RoachZStack_ProcessEvent_0:
        ; Setup parameters for call to function osal_msg_receive
        MOV     DPTR,#RoachZStack_TaskID
        MOVX    A,@DPTR
        MOV     R1,A
        LCALL   ??osal_msg_receive?relay
        MOV     ?V0 + 2,R2
        MOV     ?V0 + 3,R3
        MOV     A,R2
        ORL     A,?V0 + 3
        JNZ     $+5
        LJMP    ??RoachZStack_ProcessEvent_5 & 0xFFFF
        MOV     DPL,R2
        MOV     DPH,R3
        MOVX    A,@DPTR
        ADD     A,#-0x1a
        JZ      ??RoachZStack_ProcessEvent_3
        ADD     A,#0x5a
        JNZ     $+5
        LJMP    ??RoachZStack_ProcessEvent_6 & 0xFFFF
        ADD     A,#-0x13
        JNZ     ??RoachZStack_ProcessEvent_4
        MOV     A,R2
        ADD     A,#0xc
        MOV     DPL,A
        MOV     A,R3
        ADDC    A,#0x0
        MOV     DPH,A
        MOVX    A,@DPTR
        MOV     ?V0 + 4,A
        INC     DPTR
        MOVX    A,@DPTR
        MOV     ?V0 + 5,A
        MOV     R0,#?V0 + 4
        LCALL   ?US_SWITCH_SPARSE
`?<Jumptable for RoachZStack_ProcessEvent>_0`:
        DATA
        DATA16
        DATA
        DATA16
        DATA
        DATA16
        DW        0
        DATA
        DATA16
        DATA
        DATA16
        DATA
        DATA16
        DW        2
        DATA
        DATA16
        DATA
        DATA16
        DATA
        DATA16
        DW        32774
        DATA
        DATA16
        DATA
        DATA16
        DATA
        DATA16
        DW        ??RoachZStack_ProcessEvent_7
        DATA
        DATA16
        DATA
        DATA16
        DATA
        DATA16
        DW        32800
        DATA
        DATA16
        DATA
        DATA16
        DATA
        DATA16
        DW        ??RoachZStack_ProcessEvent_8
        DATA
        DATA16
        DATA
        DATA16
        DW        ??RoachZStack_ProcessEvent_4
        CODE
??RoachZStack_ProcessEvent_7:
        ; Setup parameters for call to function ZDO_ParseEPListRsp
        LCALL   ??ZDO_ParseEPListRsp?relay
        MOV     ?V0 + 4,R2
        MOV     ?V0 + 5,R3
        MOV     R6,?V0 + 4
        MOV     R7,?V0 + 5
        MOV     A,R6
        ORL     A,R7
        JZ      ??RoachZStack_ProcessEvent_4
        MOV     DPL,R6
        MOV     DPH,R7
        MOVX    A,@DPTR
        JNZ     ??RoachZStack_ProcessEvent_9
        INC     DPTR
        INC     DPTR
        INC     DPTR
        MOVX    A,@DPTR
        JZ      ??RoachZStack_ProcessEvent_9
        MOV     DPTR,#RoachZStack_TxAddr + 8
        MOV     A,#0x2
        MOVX    @DPTR,A
        MOV     DPL,R6
        MOV     DPH,R7
        INC     DPTR
        MOVX    A,@DPTR
        MOV     R0,A
        INC     DPTR
        MOVX    A,@DPTR
        MOV     R1,A
        MOV     DPTR,#RoachZStack_TxAddr
        MOV     A,R0
        MOVX    @DPTR,A
        INC     DPTR
        MOV     A,R1
        MOVX    @DPTR,A
        MOV     DPL,R6
        MOV     DPH,R7
        INC     DPTR
        INC     DPTR
        INC     DPTR
        INC     DPTR
        MOVX    A,@DPTR
        MOV     DPTR,#RoachZStack_TxAddr + 9
        MOVX    @DPTR,A
        ; Setup parameters for call to function HalLedSet
        MOV     R2,#0x1
        MOV     R1,#0x8
        LCALL   ??HalLedSet?relay
??RoachZStack_ProcessEvent_9:
        ; Setup parameters for call to function osal_mem_free
        MOV     A,R6
        MOV     R2,A
        MOV     A,R7
        MOV     R3,A
        LCALL   ??osal_mem_free?relay
        LJMP    ??RoachZStack_ProcessEvent_4 & 0xFFFF
??RoachZStack_ProcessEvent_8:
        MOV     A,R2
        ADD     A,#0x13
        MOV     DPL,A
        MOV     A,R3
        LCALL   ??Subroutine6_0 & 0xFFFF
??CrossCallReturnLabel_6:
        JNZ     ??RoachZStack_ProcessEvent_10
        ; Setup parameters for call to function HalLedSet
        MOV     R2,#0x1
??RoachZStack_ProcessEvent_11:
        MOV     R1,#0x8
        LCALL   ??HalLedSet?relay
        LJMP    ??RoachZStack_ProcessEvent_4 & 0xFFFF
??RoachZStack_ProcessEvent_10:
        ; Setup parameters for call to function HalLedSet
        MOV     R2,#0x4
        SJMP    ??RoachZStack_ProcessEvent_11
??RoachZStack_ProcessEvent_6:
        INC     DPTR
        INC     DPTR
        INC     DPTR
        MOVX    A,@DPTR
        MOV     R7,A
        MOV     DPL,R2
        MOV     DPH,R3
        INC     DPTR
        INC     DPTR
        MOVX    A,@DPTR
        JZ      $+5
        LJMP    ??RoachZStack_ProcessEvent_4 & 0xFFFF
        MOV     A,R7
        MOV     C,0xE0 /* A   */.1
        JNC     ??RoachZStack_ProcessEvent_12
        ; Setup parameters for call to function HalLedSet
        MOV     R2,#0x0
        MOV     R1,#0x8
        LCALL   ??HalLedSet?relay
        MOV     A,#0x8
        LCALL   ?XSTACK_DISP0_8
        MOV     A,#0x2
        MOVX    @DPTR,A
        MOV     DPL,?XSP + 0
        MOV     DPH,?XSP + 1
        CLR     A
        LCALL   ?Subroutine3 & 0xFFFF
??CrossCallReturnLabel_2:
        ; Setup parameters for call to function ZDP_EndDeviceBindReq
        MOV     ?V0 + 6,A
        MOV     R0,#?V0 + 6
        LCALL   ?PUSH_XSTACK_I_ONE
          CFI CFA_XSP16 add(XSP16, 25)
        MOV     R0,#?V0 + 4
        LCALL   ?PUSH_XSTACK_I_TWO
          CFI CFA_XSP16 add(XSP16, 27)
        MOV     ?V0 + 6,#0x2
        MOV     R0,#?V0 + 6
        LCALL   ?PUSH_XSTACK_I_ONE
          CFI CFA_XSP16 add(XSP16, 28)
        MOV     R0,#?V0 + 4
        LCALL   ?PUSH_XSTACK_I_TWO
          CFI CFA_XSP16 add(XSP16, 30)
        MOV     ?V0 + 4,#0x2
        MOV     R0,#?V0 + 4
        LCALL   ?PUSH_XSTACK_I_ONE
          CFI CFA_XSP16 add(XSP16, 31)
        MOV     ?V0 + 4,#0x5
        MOV     ?V0 + 5,#0xf
        MOV     R0,#?V0 + 4
        LCALL   ?PUSH_XSTACK_I_TWO
          CFI CFA_XSP16 add(XSP16, 33)
        ; Setup parameters for call to function NLME_GetShortAddr
        LCALL   ??NLME_GetShortAddr?relay
        MOV     A,R2
        MOV     R4,A
        MOV     A,R3
        MOV     R5,A
        MOV     A,#0xb
        MOV     R1,A
        MOV     A,#0x9
        LCALL   ?XSTACK_DISP0_8
        MOV     R2,DPL
        MOV     R3,DPH
        LCALL   ??ZDP_EndDeviceBindReq?relay
        MOV     A,#0x9
        LCALL   ?DEALLOC_XSTACK8
          CFI CFA_XSP16 add(XSP16, 24)
??RoachZStack_ProcessEvent_12:
        MOV     A,R7
        MOV     C,0xE0 /* A   */.3
        JC      $+5
        LJMP    ??RoachZStack_ProcessEvent_4 & 0xFFFF
        ; Setup parameters for call to function HalLedSet
        MOV     R2,#0x0
        MOV     R1,#0x8
        LCALL   ??HalLedSet?relay
        MOV     A,#0x8
        LCALL   ?XSTACK_DISP0_8
        MOV     A,#0xf
        MOVX    @DPTR,A
        MOV     DPL,?XSP + 0
        MOV     DPH,?XSP + 1
        MOV     A,#-0x1
        LCALL   ?Subroutine3 & 0xFFFF
??CrossCallReturnLabel_3:
        ; Setup parameters for call to function ZDP_MatchDescReq
        MOV     ?V0 + 6,#0x0
        MOV     R0,#?V0 + 6
        LCALL   ?PUSH_XSTACK_I_ONE
          CFI CFA_XSP16 add(XSP16, 25)
        MOV     R0,#?V0 + 4
        LCALL   ?PUSH_XSTACK_I_TWO
          CFI CFA_XSP16 add(XSP16, 27)
        MOV     ?V0 + 6,#0x2
        MOV     R0,#?V0 + 6
        LCALL   ?PUSH_XSTACK_I_ONE
          CFI CFA_XSP16 add(XSP16, 28)
        MOV     R0,#?V0 + 4
        LCALL   ?PUSH_XSTACK_I_TWO
          CFI CFA_XSP16 add(XSP16, 30)
        MOV     ?V0 + 4,#0x5
        MOV     ?V0 + 5,#0xf
        MOV     R0,#?V0 + 4
        LCALL   ?PUSH_XSTACK_I_TWO
          CFI CFA_XSP16 add(XSP16, 32)
        MOV     R1,#0x2
        MOV     R4,#-0x1
        MOV     R5,#-0x1
        MOV     A,#0x8
        LCALL   ?XSTACK_DISP0_8
        MOV     R2,DPL
        MOV     R3,DPH
        LCALL   ??ZDP_MatchDescReq?relay
        MOV     A,#0x8
        LCALL   ?DEALLOC_XSTACK8
          CFI CFA_XSP16 add(XSP16, 24)
        LJMP    ??RoachZStack_ProcessEvent_4 & 0xFFFF
??RoachZStack_ProcessEvent_5:
        MOV     R2,?V0 + 0
        MOV     A,?V0 + 1
        XRL     A,#0x80
        MOV     R3,A
        SJMP    ??RoachZStack_ProcessEvent_13
//  288 
//  289   if ( events & ROACHZSTACK_RESP_EVT )
??RoachZStack_ProcessEvent_1:
        ANL     A,#0x2
        JZ      ??RoachZStack_ProcessEvent_14
//  290   {
//  291     RoachZStack_Resp();
        ; Setup parameters for call to function AF_DataRequest
        MOV     ?V0 + 2,#0x1e
        MOV     R0,#?V0 + 2
        LCALL   ?PUSH_XSTACK_I_ONE
          CFI CFA_XSP16 add(XSP16, 25)
        MOV     ?V0 + 2,#RoachZStack_MsgID & 0xff
        MOV     ?V0 + 3,#(RoachZStack_MsgID >> 8) & 0xff
        MOV     R0,#?V0 + 2
        LCALL   ?PUSH_XSTACK_I_TWO
          CFI CFA_XSP16 add(XSP16, 27)
        MOV     ?V0 + 2,#RoachZStack_RspBuf & 0xff
        MOV     ?V0 + 3,#(RoachZStack_RspBuf >> 8) & 0xff
        MOV     R0,#?V0 + 2
        LCALL   ?PUSH_XSTACK_I_TWO
          CFI CFA_XSP16 add(XSP16, 29)
        MOV     ?V0 + 2,#0x4
        MOV     ?V0 + 3,#0x0
        MOV     R0,#?V0 + 2
        LCALL   ?PUSH_XSTACK_I_TWO
          CFI CFA_XSP16 add(XSP16, 31)
        MOV     ?V0 + 2,#0x2
        MOV     R0,#?V0 + 2
        LCALL   ?PUSH_XSTACK_I_TWO
          CFI CFA_XSP16 add(XSP16, 33)
        MOV     R1,#0x0
        MOV     R4,#RoachZStack_epDesc & 0xff
        MOV     R5,#(RoachZStack_epDesc >> 8) & 0xff
        MOV     R2,#RoachZStack_RxAddr & 0xff
        MOV     R3,#(RoachZStack_RxAddr >> 8) & 0xff
        LCALL   ??AF_DataRequest?relay
        MOV     A,#0x9
        LCALL   ?DEALLOC_XSTACK8
          CFI CFA_XSP16 add(XSP16, 24)
        MOV     A,R1
        JZ      ??RoachZStack_ProcessEvent_15
        ; Setup parameters for call to function osal_set_event
        MOV     R2,#0x2
        MOV     R3,#0x0
        MOV     DPTR,#RoachZStack_TaskID
        MOVX    A,@DPTR
        MOV     R1,A
        LCALL   ??osal_set_event?relay
//  292     return ( events ^ ROACHZSTACK_RESP_EVT );
??RoachZStack_ProcessEvent_15:
        MOV     A,?V0 + 0
        XRL     A,#0x2
??RoachZStack_ProcessEvent_2:
        MOV     R2,A
        MOV     R3,?V0 + 1
        SJMP    ??RoachZStack_ProcessEvent_13
//  293   }
//  294 
//  295   return ( 0 );  // Discard unknown events.
??RoachZStack_ProcessEvent_14:
        MOV     R2,#0x0
        MOV     R3,#0x0
??RoachZStack_ProcessEvent_13:
        MOV     A,#0x9
        LCALL   ?DEALLOC_XSTACK8
          CFI CFA_XSP16 add(XSP16, 15)
        MOV     R7,#0x7
        LJMP    ?BANKED_LEAVE_XDATA
          CFI EndBlock cfiBlock2
//  296 }

        RSEG BANKED_CODE:CODE:NOROOT(0)
?Subroutine3:
          CFI Block cfiCond3 Using cfiCommon0
          CFI Function RoachZStack_ProcessEvent
          CFI Conditional ??CrossCallReturnLabel_2
          CFI R6 load(1, XDATA, add(CFA_XSP16, literal(-15)))
          CFI VB load(1, XDATA, add(CFA_XSP16, literal(-14)))
          CFI V0 load(1, XDATA, add(CFA_XSP16, literal(-13)))
          CFI V1 load(1, XDATA, add(CFA_XSP16, literal(-12)))
          CFI V2 load(1, XDATA, add(CFA_XSP16, literal(-11)))
          CFI V3 load(1, XDATA, add(CFA_XSP16, literal(-10)))
          CFI V4 load(1, XDATA, add(CFA_XSP16, literal(-9)))
          CFI V5 load(1, XDATA, add(CFA_XSP16, literal(-8)))
          CFI V6 load(1, XDATA, add(CFA_XSP16, literal(-7)))
          CFI R7 load(1, XDATA, add(CFA_XSP16, literal(-6)))
          CFI ?RET_LOW load(1, XDATA, add(CFA_XSP16, literal(-5)))
          CFI ?RET_HIGH load(1, XDATA, add(CFA_XSP16, literal(-4)))
          CFI ?BRET_EXT load(1, XDATA, add(CFA_XSP16, literal(-3)))
          CFI DPL0 load(1, XDATA, add(CFA_XSP16, literal(-2)))
          CFI DPH0 load(1, XDATA, add(CFA_XSP16, literal(-1)))
          CFI CFA_SP SP+0
          CFI CFA_XSP16 add(XSP16, 24)
          CFI Block cfiCond4 Using cfiCommon0
          CFI (cfiCond4) Function RoachZStack_ProcessEvent
          CFI (cfiCond4) Conditional ??CrossCallReturnLabel_3
          CFI (cfiCond4) R6 load(1, XDATA, add(CFA_XSP16, literal(-15)))
          CFI (cfiCond4) VB load(1, XDATA, add(CFA_XSP16, literal(-14)))
          CFI (cfiCond4) V0 load(1, XDATA, add(CFA_XSP16, literal(-13)))
          CFI (cfiCond4) V1 load(1, XDATA, add(CFA_XSP16, literal(-12)))
          CFI (cfiCond4) V2 load(1, XDATA, add(CFA_XSP16, literal(-11)))
          CFI (cfiCond4) V3 load(1, XDATA, add(CFA_XSP16, literal(-10)))
          CFI (cfiCond4) V4 load(1, XDATA, add(CFA_XSP16, literal(-9)))
          CFI (cfiCond4) V5 load(1, XDATA, add(CFA_XSP16, literal(-8)))
          CFI (cfiCond4) V6 load(1, XDATA, add(CFA_XSP16, literal(-7)))
          CFI (cfiCond4) R7 load(1, XDATA, add(CFA_XSP16, literal(-6)))
          CFI (cfiCond4) ?RET_LOW load(1, XDATA, add(CFA_XSP16, literal(-5)))
          CFI (cfiCond4) ?RET_HIGH load(1, XDATA, add(CFA_XSP16, literal(-4)))
          CFI (cfiCond4) ?BRET_EXT load(1, XDATA, add(CFA_XSP16, literal(-3)))
          CFI (cfiCond4) DPL0 load(1, XDATA, add(CFA_XSP16, literal(-2)))
          CFI (cfiCond4) DPH0 load(1, XDATA, add(CFA_XSP16, literal(-1)))
          CFI (cfiCond4) CFA_SP SP+0
          CFI (cfiCond4) CFA_XSP16 add(XSP16, 24)
          CFI Block cfiPicker5 Using cfiCommon1
          CFI (cfiPicker5) NoFunction
          CFI (cfiPicker5) Picker
        MOVX    @DPTR,A
        INC     DPTR
        MOVX    @DPTR,A
        MOV     ?V0 + 4,#RoachZStack_ClusterList & 0xff
        MOV     ?V0 + 5,#(RoachZStack_ClusterList >> 8) & 0xff
        RET
          CFI EndBlock cfiCond3
          CFI EndBlock cfiCond4
          CFI EndBlock cfiPicker5
//  297 
//  298 /*********************************************************************
//  299  * @fn      RoachZStack_ProcessZDOMsgs()
//  300  *
//  301  * @brief   Process response messages
//  302  *
//  303  * @param   none
//  304  *
//  305  * @return  none
//  306  */
//  307 static void RoachZStack_ProcessZDOMsgs( zdoIncomingMsg_t *inMsg )
//  308 {
//  309   switch ( inMsg->clusterID )
//  310   {
//  311     case End_Device_Bind_rsp:
//  312       if ( ZDO_ParseBindRsp( inMsg ) == ZSuccess )
//  313       {
//  314         // Light LED
//  315         HalLedSet( HAL_LED_4, HAL_LED_MODE_ON );
//  316       }
//  317 #if defined(BLINK_LEDS)
//  318       else
//  319       {
//  320         // Flash LED to show failure
//  321         HalLedSet ( HAL_LED_4, HAL_LED_MODE_FLASH );
//  322       }
//  323 #endif
//  324       break;
//  325       
//  326     case Match_Desc_rsp:
//  327       {
//  328         ZDO_ActiveEndpointRsp_t *pRsp = ZDO_ParseEPListRsp( inMsg );
//  329         if ( pRsp )
//  330         {
//  331           if ( pRsp->status == ZSuccess && pRsp->cnt )
//  332           {
//  333             RoachZStack_TxAddr.addrMode = (afAddrMode_t)Addr16Bit;
//  334             RoachZStack_TxAddr.addr.shortAddr = pRsp->nwkAddr;
//  335             // Take the first endpoint, Can be changed to search through endpoints
//  336             RoachZStack_TxAddr.endPoint = pRsp->epList[0];
//  337             
//  338             // Light LED
//  339             HalLedSet( HAL_LED_4, HAL_LED_MODE_ON );
//  340           }
//  341           osal_mem_free( pRsp );
//  342         }
//  343       }
//  344       break;
//  345   }
//  346 }
//  347 
//  348 /*********************************************************************
//  349  * @fn      RoachZStack_HandleKeys
//  350  *
//  351  * @brief   Handles all key events for this device.
//  352  *
//  353  * @param   shift - true if in shift/alt.
//  354  * @param   keys  - bit field for key events.
//  355  *
//  356  * @return  none
//  357  */
//  358 void RoachZStack_HandleKeys( uint8 shift, uint8 keys )
//  359 {
//  360   zAddrType_t txAddr;
//  361   
//  362   if ( shift )
//  363   {
//  364     if ( keys & HAL_KEY_SW_1 )
//  365     {
//  366     }
//  367     if ( keys & HAL_KEY_SW_2 )
//  368     {
//  369     }
//  370     if ( keys & HAL_KEY_SW_3 )
//  371     {
//  372     }
//  373     if ( keys & HAL_KEY_SW_4 )
//  374     {
//  375     }
//  376   }
//  377   else
//  378   {
//  379     if ( keys & HAL_KEY_SW_1 )
//  380     {
//  381     }
//  382 
//  383     if ( keys & HAL_KEY_SW_2 )
//  384     {
//  385       HalLedSet ( HAL_LED_4, HAL_LED_MODE_OFF );
//  386       
//  387       // Initiate an End Device Bind Request for the mandatory endpoint
//  388       txAddr.addrMode = Addr16Bit;
//  389       txAddr.addr.shortAddr = 0x0000; // Coordinator
//  390       ZDP_EndDeviceBindReq( &txAddr, NLME_GetShortAddr(), 
//  391                             RoachZStack_epDesc.endPoint,
//  392                             ROACHZSTACK_PROFID,
//  393                             ROACHZSTACK_MAX_CLUSTERS, (cId_t *)RoachZStack_ClusterList,
//  394                             ROACHZSTACK_MAX_CLUSTERS, (cId_t *)RoachZStack_ClusterList,
//  395                             FALSE );
//  396     }
//  397 
//  398     if ( keys & HAL_KEY_SW_3 )
//  399     {
//  400     }
//  401 
//  402     if ( keys & HAL_KEY_SW_4 )
//  403     {
//  404       HalLedSet ( HAL_LED_4, HAL_LED_MODE_OFF );
//  405       
//  406       // Initiate a Match Description Request (Service Discovery)
//  407       txAddr.addrMode = AddrBroadcast;
//  408       txAddr.addr.shortAddr = NWK_BROADCAST_SHORTADDR;
//  409       ZDP_MatchDescReq( &txAddr, NWK_BROADCAST_SHORTADDR,
//  410                         ROACHZSTACK_PROFID,
//  411                         ROACHZSTACK_MAX_CLUSTERS, (cId_t *)RoachZStack_ClusterList,
//  412                         ROACHZSTACK_MAX_CLUSTERS, (cId_t *)RoachZStack_ClusterList,
//  413                         FALSE );
//  414     }
//  415   }
//  416 }
//  417 
//  418 /*********************************************************************
//  419  * @fn      RoachZStack_ProcessMSGCmd
//  420  *
//  421  * @brief   Data message processor callback. This function processes
//  422  *          any incoming data - probably from other devices. Based
//  423  *          on the cluster ID, perform the intended action.
//  424  *
//  425  * @param   pkt - pointer to the incoming message packet
//  426  *
//  427  * @return  TRUE if the 'pkt' parameter is being used and will be freed later,
//  428  *          FALSE otherwise.
//  429  */

        RSEG BANKED_CODE:CODE:NOROOT(0)
//  430 void RoachZStack_ProcessMSGCmd( afIncomingMSGPacket_t *pkt )
RoachZStack_ProcessMSGCmd:
          CFI Block cfiBlock6 Using cfiCommon0
          CFI Function RoachZStack_ProcessMSGCmd
        CODE
//  431 {
        FUNCALL RoachZStack_ProcessMSGCmd, osal_memcpy
        LOCFRAME ISTACK, 0, STACK
        LOCFRAME PSTACK, 0, STACK
        LOCFRAME XSTACK, 15, STACK
        LOCFRAME IOVERLAY, 0, STATIC
        LOCFRAME DOVERLAY, 0, STATIC
        ARGFRAME ISTACK, 0, STACK
        ARGFRAME PSTACK, 0, STACK
        ARGFRAME XSTACK, 15, STACK
        ARGFRAME IOVERLAY, 0, STATIC
        ARGFRAME DOVERLAY, 0, STATIC
        FUNCALL RoachZStack_ProcessMSGCmd, HalUARTWrite
        LOCFRAME ISTACK, 0, STACK
        LOCFRAME PSTACK, 0, STACK
        LOCFRAME XSTACK, 12, STACK
        LOCFRAME IOVERLAY, 0, STATIC
        LOCFRAME DOVERLAY, 0, STATIC
        ARGFRAME ISTACK, 0, STACK
        ARGFRAME PSTACK, 0, STACK
        ARGFRAME XSTACK, 12, STACK
        ARGFRAME IOVERLAY, 0, STATIC
        ARGFRAME DOVERLAY, 0, STATIC
        FUNCALL RoachZStack_ProcessMSGCmd, osal_set_event
        LOCFRAME ISTACK, 0, STACK
        LOCFRAME PSTACK, 0, STACK
        LOCFRAME XSTACK, 12, STACK
        LOCFRAME IOVERLAY, 0, STATIC
        LOCFRAME DOVERLAY, 0, STATIC
        ARGFRAME ISTACK, 0, STACK
        ARGFRAME PSTACK, 0, STACK
        ARGFRAME XSTACK, 12, STACK
        ARGFRAME IOVERLAY, 0, STATIC
        ARGFRAME DOVERLAY, 0, STATIC
        FUNCALL RoachZStack_ProcessMSGCmd, osal_stop_timerEx
        LOCFRAME ISTACK, 0, STACK
        LOCFRAME PSTACK, 0, STACK
        LOCFRAME XSTACK, 12, STACK
        LOCFRAME IOVERLAY, 0, STATIC
        LOCFRAME DOVERLAY, 0, STATIC
        ARGFRAME ISTACK, 0, STACK
        ARGFRAME PSTACK, 0, STACK
        ARGFRAME XSTACK, 12, STACK
        ARGFRAME IOVERLAY, 0, STATIC
        ARGFRAME DOVERLAY, 0, STATIC
        FUNCALL RoachZStack_ProcessMSGCmd, osal_stop_timerEx
        LOCFRAME ISTACK, 0, STACK
        LOCFRAME PSTACK, 0, STACK
        LOCFRAME XSTACK, 12, STACK
        LOCFRAME IOVERLAY, 0, STATIC
        LOCFRAME DOVERLAY, 0, STATIC
        ARGFRAME ISTACK, 0, STACK
        ARGFRAME PSTACK, 0, STACK
        ARGFRAME XSTACK, 12, STACK
        ARGFRAME IOVERLAY, 0, STATIC
        ARGFRAME DOVERLAY, 0, STATIC
        FUNCALL RoachZStack_ProcessMSGCmd, osal_start_timerEx
        LOCFRAME ISTACK, 0, STACK
        LOCFRAME PSTACK, 0, STACK
        LOCFRAME XSTACK, 12, STACK
        LOCFRAME IOVERLAY, 0, STATIC
        LOCFRAME DOVERLAY, 0, STATIC
        ARGFRAME ISTACK, 0, STACK
        ARGFRAME PSTACK, 0, STACK
        ARGFRAME XSTACK, 12, STACK
        ARGFRAME IOVERLAY, 0, STATIC
        ARGFRAME DOVERLAY, 0, STATIC
        MOV     A,#-0xc
        LCALL   ?BANKED_ENTER_XDATA
          CFI DPH0 load(1, XDATA, add(CFA_XSP16, literal(-1)))
          CFI DPL0 load(1, XDATA, add(CFA_XSP16, literal(-2)))
          CFI ?BRET_EXT load(1, XDATA, add(CFA_XSP16, literal(-3)))
          CFI ?RET_HIGH load(1, XDATA, add(CFA_XSP16, literal(-4)))
          CFI ?RET_LOW load(1, XDATA, add(CFA_XSP16, literal(-5)))
          CFI R7 load(1, XDATA, add(CFA_XSP16, literal(-6)))
          CFI V3 load(1, XDATA, add(CFA_XSP16, literal(-7)))
          CFI V2 load(1, XDATA, add(CFA_XSP16, literal(-8)))
          CFI V1 load(1, XDATA, add(CFA_XSP16, literal(-9)))
          CFI V0 load(1, XDATA, add(CFA_XSP16, literal(-10)))
          CFI VB load(1, XDATA, add(CFA_XSP16, literal(-11)))
          CFI R6 load(1, XDATA, add(CFA_XSP16, literal(-12)))
          CFI CFA_SP SP+0
          CFI CFA_XSP16 add(XSP16, 12)
        ; Saved register size: 12
        ; Auto size: 0
        MOV     A,R2
        MOV     R6,A
        MOV     A,R3
        MOV     R7,A
//  432   uint8 stat;
//  433   uint8 seqnb;
//  434   uint8 delay;
//  435 
//  436   switch ( pkt->clusterId )
        MOV     DPL,R6
        MOV     DPH,R7
        INC     DPTR
        INC     DPTR
        INC     DPTR
        INC     DPTR
        MOVX    A,@DPTR
        MOV     ?V0 + 0,A
        INC     DPTR
        MOVX    A,@DPTR
        MOV     ?V0 + 1,A
        MOV     R0,#?V0 + 0
        LCALL   ?US_SWITCH_DENSE
`?<Jumptable for RoachZStack_ProcessMSGCmd>_0`:
        DATA
        DATA16
        DATA
        DATA16
        DW        1
        DATA
        DATA8
        DATA
        DATA8
        DB        1
        DATA
        DATA16
        DATA
        DATA16
        DW        ??RoachZStack_ProcessMSGCmd_0
        DATA
        DATA16
        DATA
        DATA16
        DW        ??RoachZStack_ProcessMSGCmd_1
        DATA
        DATA16
        DATA
        DATA16
        DW        ??RoachZStack_ProcessMSGCmd_2
        CODE
//  437   {
//  438   // A message with a serial data block to be transmitted on the serial port.
//  439   case ROACHZSTACK_CLUSTERID1:
//  440     // Store the address for sending and retrying.
//  441     osal_memcpy(&RoachZStack_RxAddr, &(pkt->srcAddr), sizeof( afAddrType_t ));
??RoachZStack_ProcessMSGCmd_1:
        ; Setup parameters for call to function osal_memcpy
        MOV     A,R6
        ADD     A,#0x6
        MOV     ?V0 + 0,A
        MOV     A,R7
        ADDC    A,#0x0
        MOV     ?V0 + 1,A
        MOV     ?V0 + 2,#0x0
        MOV     R0,#?V0 + 0
        LCALL   ?PUSH_XSTACK_I_THREE
          CFI CFA_XSP16 add(XSP16, 15)
        MOV     R4,#0xc
        MOV     R5,#0x0
        MOV     R2,#RoachZStack_RxAddr & 0xff
        MOV     R3,#(RoachZStack_RxAddr >> 8) & 0xff
        LCALL   ??osal_memcpy?relay
        MOV     A,#0x3
        LCALL   ?DEALLOC_XSTACK8
          CFI CFA_XSP16 add(XSP16, 12)
//  442 
//  443     seqnb = pkt->cmd.Data[0];
        LCALL   ?Subroutine1 & 0xFFFF
??CrossCallReturnLabel_7:
        MOV     ?V0 + 0,A
//  444 
//  445     // Keep message if not a repeat packet
//  446     if ( (seqnb > RoachZStack_RxSeq) ||                    // Normal
//  447         ((seqnb < 0x80 ) && ( RoachZStack_RxSeq > 0x80)) ) // Wrap-around
        MOV     DPTR,#RoachZStack_RxSeq
        MOVX    A,@DPTR
        CLR     C
        SUBB    A,?V0 + 0
        JC      ??RoachZStack_ProcessMSGCmd_3
        MOV     A,?V0 + 0
        CLR     C
        SUBB    A,#-0x80
        JNC     ??RoachZStack_ProcessMSGCmd_4
        MOVX    A,@DPTR
        CLR     C
        SUBB    A,#-0x7f
        JC      ??RoachZStack_ProcessMSGCmd_4
//  448     {
//  449       // Transmit the data on the serial port.
//  450       if ( HalUARTWrite( SERIAL_APP_PORT, pkt->cmd.Data+1, (pkt->cmd.DataLength-1) ) )
??RoachZStack_ProcessMSGCmd_3:
        ; Setup parameters for call to function HalUARTWrite
        MOV     A,R6
        ADD     A,#0x20
        MOV     DPL,A
        MOV     A,R7
        ADDC    A,#0x0
        MOV     DPH,A
        MOVX    A,@DPTR
        ADD     A,#-0x1
        MOV     R4,A
        INC     DPTR
        MOVX    A,@DPTR
        ADDC    A,#-0x1
        MOV     R5,A
        LCALL   ?Subroutine4 & 0xFFFF
??CrossCallReturnLabel_4:
        MOVX    A,@DPTR
        ADD     A,#0x1
        MOV     R2,A
        INC     DPTR
        MOVX    A,@DPTR
        ADDC    A,#0x0
        MOV     R3,A
        MOV     R1,#0x0
        LCALL   ??HalUARTWrite?relay
        MOV     ?V0 + 3,R3
        MOV     A,R2
        ORL     A,?V0 + 3
        JZ      ??RoachZStack_ProcessMSGCmd_5
//  451       {
//  452         // Save for next incoming message
//  453         RoachZStack_RxSeq = seqnb;
        MOV     A,?V0 + 0
        MOV     DPTR,#RoachZStack_RxSeq
        MOVX    @DPTR,A
//  454         stat = OTA_SUCCESS;
        CLR     A
        SJMP    ??RoachZStack_ProcessMSGCmd_6
//  455       }
//  456       else
//  457       {
//  458         stat = OTA_SER_BUSY;
??RoachZStack_ProcessMSGCmd_5:
        MOV     A,#0x2
        MOV     R0,#0x10
        SJMP    ??RoachZStack_ProcessMSGCmd_7
//  459       }
//  460     }
//  461     else
//  462     {
//  463       stat = OTA_DUP_MSG;
??RoachZStack_ProcessMSGCmd_4:
        MOV     A,#0x1
??RoachZStack_ProcessMSGCmd_6:
        MOV     R0,#0x1
//  464     }
//  465 
//  466     // Select approproiate OTA flow-control delay.
//  467     delay = (stat == OTA_SER_BUSY) ? ROACHZSTACK_NAK_DELAY : ROACHZSTACK_ACK_DELAY;
//  468 
//  469     // Build & send OTA response message.
//  470     RoachZStack_RspBuf[0] = stat;
??RoachZStack_ProcessMSGCmd_7:
        MOV     DPTR,#RoachZStack_RspBuf
        MOVX    @DPTR,A
//  471     RoachZStack_RspBuf[1] = seqnb;
        MOV     A,?V0 + 0
        INC     DPTR
        MOVX    @DPTR,A
//  472     RoachZStack_RspBuf[2] = LO_UINT16( delay );
        MOV     A,R0
        INC     DPTR
        MOVX    @DPTR,A
//  473     RoachZStack_RspBuf[3] = HI_UINT16( delay );
        INC     DPTR
        CLR     A
        MOVX    @DPTR,A
//  474     osal_set_event( RoachZStack_TaskID, ROACHZSTACK_RESP_EVT );
        ; Setup parameters for call to function osal_set_event
        MOV     R2,#0x2
        MOV     R3,A
        MOV     DPTR,#RoachZStack_TaskID
        MOVX    A,@DPTR
        MOV     R1,A
        LCALL   ??osal_set_event?relay
//  475     osal_stop_timerEx(RoachZStack_TaskID, ROACHZSTACK_RESP_EVT);
        ; Setup parameters for call to function osal_stop_timerEx
        MOV     R2,#0x2
        MOV     R3,#0x0
        SJMP    ??RoachZStack_ProcessMSGCmd_8
//  476     break;
//  477 
//  478   // A response to a received serial data block.
//  479   case ROACHZSTACK_CLUSTERID2:
//  480     if ((pkt->cmd.Data[1] == RoachZStack_TxSeq) &&
//  481        ((pkt->cmd.Data[0] == OTA_SUCCESS) || (pkt->cmd.Data[0] == OTA_DUP_MSG)))
??RoachZStack_ProcessMSGCmd_2:
        LCALL   ?Subroutine2 & 0xFFFF
??CrossCallReturnLabel_0:
        MOVX    A,@DPTR
        MOV     R0,A
        MOV     DPTR,#RoachZStack_TxSeq
        MOVX    A,@DPTR
        XRL     A,R0
        JNZ     ??RoachZStack_ProcessMSGCmd_9
        LCALL   ?Subroutine1 & 0xFFFF
??CrossCallReturnLabel_8:
        JZ      ??RoachZStack_ProcessMSGCmd_10
        LCALL   ?Subroutine4 & 0xFFFF
??CrossCallReturnLabel_5:
        INC     DPTR
        MOVX    A,@DPTR
        MOV     DPH,A
        MOV     DPL,R0
        MOVX    A,@DPTR
        XRL     A,#0x1
        JNZ     ??RoachZStack_ProcessMSGCmd_9
//  482     {
//  483       RoachZStack_TxLen = 0;
??RoachZStack_ProcessMSGCmd_10:
        MOV     DPTR,#RoachZStack_TxLen
        CLR     A
        MOVX    @DPTR,A
//  484       osal_stop_timerEx(RoachZStack_TaskID, ROACHZSTACK_SEND_EVT);
        ; Setup parameters for call to function osal_stop_timerEx
        MOV     R2,#0x1
        MOV     R3,A
??RoachZStack_ProcessMSGCmd_8:
        MOV     DPTR,#RoachZStack_TaskID
        MOVX    A,@DPTR
        MOV     R1,A
        LCALL   ??osal_stop_timerEx?relay
        SJMP    ??RoachZStack_ProcessMSGCmd_0
//  485     }
//  486     else
//  487     {
//  488       // Re-start timeout according to delay sent from other device.
//  489       delay = BUILD_UINT16( pkt->cmd.Data[2], pkt->cmd.Data[3] );
//  490       osal_start_timerEx( RoachZStack_TaskID, ROACHZSTACK_SEND_EVT, delay );
??RoachZStack_ProcessMSGCmd_9:
        ; Setup parameters for call to function osal_start_timerEx
        LCALL   ?Subroutine2 & 0xFFFF
//  491     }
//  492     break;
//  493 
//  494     default:
//  495       break;
//  496   }
??CrossCallReturnLabel_1:
        INC     DPTR
        MOVX    A,@DPTR
        MOV     R4,A
        MOV     R5,#0x0
        MOV     R2,#0x1
        MOV     R3,#0x0
        MOV     DPTR,#RoachZStack_TaskID
        MOVX    A,@DPTR
        MOV     R1,A
        LCALL   ??osal_start_timerEx?relay
//  497 }
??RoachZStack_ProcessMSGCmd_0:
        MOV     R7,#0x4
        LJMP    ?BANKED_LEAVE_XDATA
          CFI EndBlock cfiBlock6

        RSEG BANKED_CODE:CODE:NOROOT(0)
?Subroutine4:
          CFI Block cfiCond7 Using cfiCommon0
          CFI Function RoachZStack_ProcessMSGCmd
          CFI Conditional ??CrossCallReturnLabel_4
          CFI R6 load(1, XDATA, add(CFA_XSP16, literal(-12)))
          CFI VB load(1, XDATA, add(CFA_XSP16, literal(-11)))
          CFI V0 load(1, XDATA, add(CFA_XSP16, literal(-10)))
          CFI V1 load(1, XDATA, add(CFA_XSP16, literal(-9)))
          CFI V2 load(1, XDATA, add(CFA_XSP16, literal(-8)))
          CFI V3 load(1, XDATA, add(CFA_XSP16, literal(-7)))
          CFI R7 load(1, XDATA, add(CFA_XSP16, literal(-6)))
          CFI ?RET_LOW load(1, XDATA, add(CFA_XSP16, literal(-5)))
          CFI ?RET_HIGH load(1, XDATA, add(CFA_XSP16, literal(-4)))
          CFI ?BRET_EXT load(1, XDATA, add(CFA_XSP16, literal(-3)))
          CFI DPL0 load(1, XDATA, add(CFA_XSP16, literal(-2)))
          CFI DPH0 load(1, XDATA, add(CFA_XSP16, literal(-1)))
          CFI CFA_SP SP+0
          CFI CFA_XSP16 add(XSP16, 12)
          CFI Block cfiCond8 Using cfiCommon0
          CFI (cfiCond8) Function RoachZStack_ProcessMSGCmd
          CFI (cfiCond8) Conditional ??CrossCallReturnLabel_5
          CFI (cfiCond8) R6 load(1, XDATA, add(CFA_XSP16, literal(-12)))
          CFI (cfiCond8) VB load(1, XDATA, add(CFA_XSP16, literal(-11)))
          CFI (cfiCond8) V0 load(1, XDATA, add(CFA_XSP16, literal(-10)))
          CFI (cfiCond8) V1 load(1, XDATA, add(CFA_XSP16, literal(-9)))
          CFI (cfiCond8) V2 load(1, XDATA, add(CFA_XSP16, literal(-8)))
          CFI (cfiCond8) V3 load(1, XDATA, add(CFA_XSP16, literal(-7)))
          CFI (cfiCond8) R7 load(1, XDATA, add(CFA_XSP16, literal(-6)))
          CFI (cfiCond8) ?RET_LOW load(1, XDATA, add(CFA_XSP16, literal(-5)))
          CFI (cfiCond8) ?RET_HIGH load(1, XDATA, add(CFA_XSP16, literal(-4)))
          CFI (cfiCond8) ?BRET_EXT load(1, XDATA, add(CFA_XSP16, literal(-3)))
          CFI (cfiCond8) DPL0 load(1, XDATA, add(CFA_XSP16, literal(-2)))
          CFI (cfiCond8) DPH0 load(1, XDATA, add(CFA_XSP16, literal(-1)))
          CFI (cfiCond8) CFA_SP SP+0
          CFI (cfiCond8) CFA_XSP16 add(XSP16, 12)
          CFI Block cfiPicker9 Using cfiCommon1
          CFI (cfiPicker9) NoFunction
          CFI (cfiPicker9) Picker
        MOV     A,R6
        ADD     A,#0x22
        MOV     DPL,A
        MOV     A,R7
        ADDC    A,#0x0
        MOV     DPH,A
        RET
          CFI EndBlock cfiCond7
          CFI EndBlock cfiCond8
          CFI EndBlock cfiPicker9

        RSEG BANKED_CODE:CODE:NOROOT(0)
?Subroutine2:
          CFI Block cfiCond10 Using cfiCommon0
          CFI Function RoachZStack_ProcessMSGCmd
          CFI Conditional ??CrossCallReturnLabel_0
          CFI R6 load(1, XDATA, add(CFA_XSP16, literal(-12)))
          CFI VB load(1, XDATA, add(CFA_XSP16, literal(-11)))
          CFI V0 load(1, XDATA, add(CFA_XSP16, literal(-10)))
          CFI V1 load(1, XDATA, add(CFA_XSP16, literal(-9)))
          CFI V2 load(1, XDATA, add(CFA_XSP16, literal(-8)))
          CFI V3 load(1, XDATA, add(CFA_XSP16, literal(-7)))
          CFI R7 load(1, XDATA, add(CFA_XSP16, literal(-6)))
          CFI ?RET_LOW load(1, XDATA, add(CFA_XSP16, literal(-5)))
          CFI ?RET_HIGH load(1, XDATA, add(CFA_XSP16, literal(-4)))
          CFI ?BRET_EXT load(1, XDATA, add(CFA_XSP16, literal(-3)))
          CFI DPL0 load(1, XDATA, add(CFA_XSP16, literal(-2)))
          CFI DPH0 load(1, XDATA, add(CFA_XSP16, literal(-1)))
          CFI CFA_SP SP+0
          CFI CFA_XSP16 add(XSP16, 12)
          CFI Block cfiCond11 Using cfiCommon0
          CFI (cfiCond11) Function RoachZStack_ProcessMSGCmd
          CFI (cfiCond11) Conditional ??CrossCallReturnLabel_1
          CFI (cfiCond11) R6 load(1, XDATA, add(CFA_XSP16, literal(-12)))
          CFI (cfiCond11) VB load(1, XDATA, add(CFA_XSP16, literal(-11)))
          CFI (cfiCond11) V0 load(1, XDATA, add(CFA_XSP16, literal(-10)))
          CFI (cfiCond11) V1 load(1, XDATA, add(CFA_XSP16, literal(-9)))
          CFI (cfiCond11) V2 load(1, XDATA, add(CFA_XSP16, literal(-8)))
          CFI (cfiCond11) V3 load(1, XDATA, add(CFA_XSP16, literal(-7)))
          CFI (cfiCond11) R7 load(1, XDATA, add(CFA_XSP16, literal(-6)))
          CFI (cfiCond11) ?RET_LOW load(1, XDATA, add(CFA_XSP16, literal(-5)))
          CFI (cfiCond11) ?RET_HIGH load(1, XDATA, add(CFA_XSP16, literal(-4)))
          CFI (cfiCond11) ?BRET_EXT load(1, XDATA, add(CFA_XSP16, literal(-3)))
          CFI (cfiCond11) DPL0 load(1, XDATA, add(CFA_XSP16, literal(-2)))
          CFI (cfiCond11) DPH0 load(1, XDATA, add(CFA_XSP16, literal(-1)))
          CFI (cfiCond11) CFA_SP SP+0
          CFI (cfiCond11) CFA_XSP16 add(XSP16, 12)
          CFI Block cfiPicker12 Using cfiCommon1
          CFI (cfiPicker12) NoFunction
          CFI (cfiPicker12) Picker
        MOV     A,R6
        ADD     A,#0x22
        MOV     DPL,A
        MOV     A,R7
        LCALL   ?Subroutine5 & 0xFFFF
??CrossCallReturnLabel_9:
        INC     DPTR
        RET
          CFI EndBlock cfiCond10
          CFI EndBlock cfiCond11
          CFI EndBlock cfiPicker12

        RSEG BANKED_CODE:CODE:NOROOT(0)
?Subroutine1:
          CFI Block cfiCond13 Using cfiCommon0
          CFI Function RoachZStack_ProcessMSGCmd
          CFI Conditional ??CrossCallReturnLabel_7
          CFI R6 load(1, XDATA, add(CFA_XSP16, literal(-12)))
          CFI VB load(1, XDATA, add(CFA_XSP16, literal(-11)))
          CFI V0 load(1, XDATA, add(CFA_XSP16, literal(-10)))
          CFI V1 load(1, XDATA, add(CFA_XSP16, literal(-9)))
          CFI V2 load(1, XDATA, add(CFA_XSP16, literal(-8)))
          CFI V3 load(1, XDATA, add(CFA_XSP16, literal(-7)))
          CFI R7 load(1, XDATA, add(CFA_XSP16, literal(-6)))
          CFI ?RET_LOW load(1, XDATA, add(CFA_XSP16, literal(-5)))
          CFI ?RET_HIGH load(1, XDATA, add(CFA_XSP16, literal(-4)))
          CFI ?BRET_EXT load(1, XDATA, add(CFA_XSP16, literal(-3)))
          CFI DPL0 load(1, XDATA, add(CFA_XSP16, literal(-2)))
          CFI DPH0 load(1, XDATA, add(CFA_XSP16, literal(-1)))
          CFI CFA_SP SP+0
          CFI CFA_XSP16 add(XSP16, 12)
          CFI Block cfiCond14 Using cfiCommon0
          CFI (cfiCond14) Function RoachZStack_ProcessMSGCmd
          CFI (cfiCond14) Conditional ??CrossCallReturnLabel_8
          CFI (cfiCond14) R6 load(1, XDATA, add(CFA_XSP16, literal(-12)))
          CFI (cfiCond14) VB load(1, XDATA, add(CFA_XSP16, literal(-11)))
          CFI (cfiCond14) V0 load(1, XDATA, add(CFA_XSP16, literal(-10)))
          CFI (cfiCond14) V1 load(1, XDATA, add(CFA_XSP16, literal(-9)))
          CFI (cfiCond14) V2 load(1, XDATA, add(CFA_XSP16, literal(-8)))
          CFI (cfiCond14) V3 load(1, XDATA, add(CFA_XSP16, literal(-7)))
          CFI (cfiCond14) R7 load(1, XDATA, add(CFA_XSP16, literal(-6)))
          CFI (cfiCond14) ?RET_LOW load(1, XDATA, add(CFA_XSP16, literal(-5)))
          CFI (cfiCond14) ?RET_HIGH load(1, XDATA, add(CFA_XSP16, literal(-4)))
          CFI (cfiCond14) ?BRET_EXT load(1, XDATA, add(CFA_XSP16, literal(-3)))
          CFI (cfiCond14) DPL0 load(1, XDATA, add(CFA_XSP16, literal(-2)))
          CFI (cfiCond14) DPH0 load(1, XDATA, add(CFA_XSP16, literal(-1)))
          CFI (cfiCond14) CFA_SP SP+0
          CFI (cfiCond14) CFA_XSP16 add(XSP16, 12)
          CFI Block cfiPicker15 Using cfiCommon1
          CFI (cfiPicker15) NoFunction
          CFI (cfiPicker15) Picker
        MOV     A,R6
        ADD     A,#0x22
        MOV     DPL,A
        MOV     A,R7
          CFI EndBlock cfiCond13
          CFI EndBlock cfiCond14
          CFI EndBlock cfiPicker15
        REQUIRE ??Subroutine6_0
        ; // Fall through to label ??Subroutine6_0

        RSEG BANKED_CODE:CODE:NOROOT(0)
??Subroutine6_0:
          CFI Block cfiCond16 Using cfiCommon0
          CFI Function RoachZStack_ProcessEvent
          CFI Conditional ??CrossCallReturnLabel_6
          CFI R6 load(1, XDATA, add(CFA_XSP16, literal(-15)))
          CFI VB load(1, XDATA, add(CFA_XSP16, literal(-14)))
          CFI V0 load(1, XDATA, add(CFA_XSP16, literal(-13)))
          CFI V1 load(1, XDATA, add(CFA_XSP16, literal(-12)))
          CFI V2 load(1, XDATA, add(CFA_XSP16, literal(-11)))
          CFI V3 load(1, XDATA, add(CFA_XSP16, literal(-10)))
          CFI V4 load(1, XDATA, add(CFA_XSP16, literal(-9)))
          CFI V5 load(1, XDATA, add(CFA_XSP16, literal(-8)))
          CFI V6 load(1, XDATA, add(CFA_XSP16, literal(-7)))
          CFI R7 load(1, XDATA, add(CFA_XSP16, literal(-6)))
          CFI ?RET_LOW load(1, XDATA, add(CFA_XSP16, literal(-5)))
          CFI ?RET_HIGH load(1, XDATA, add(CFA_XSP16, literal(-4)))
          CFI ?BRET_EXT load(1, XDATA, add(CFA_XSP16, literal(-3)))
          CFI DPL0 load(1, XDATA, add(CFA_XSP16, literal(-2)))
          CFI DPH0 load(1, XDATA, add(CFA_XSP16, literal(-1)))
          CFI CFA_SP SP+0
          CFI CFA_XSP16 add(XSP16, 24)
          CFI Block cfiCond17 Using cfiCommon0
          CFI (cfiCond17) Function RoachZStack_ProcessMSGCmd
          CFI (cfiCond17) Conditional ??CrossCallReturnLabel_7
          CFI (cfiCond17) R6 load(1, XDATA, add(CFA_XSP16, literal(-12)))
          CFI (cfiCond17) VB load(1, XDATA, add(CFA_XSP16, literal(-11)))
          CFI (cfiCond17) V0 load(1, XDATA, add(CFA_XSP16, literal(-10)))
          CFI (cfiCond17) V1 load(1, XDATA, add(CFA_XSP16, literal(-9)))
          CFI (cfiCond17) V2 load(1, XDATA, add(CFA_XSP16, literal(-8)))
          CFI (cfiCond17) V3 load(1, XDATA, add(CFA_XSP16, literal(-7)))
          CFI (cfiCond17) R7 load(1, XDATA, add(CFA_XSP16, literal(-6)))
          CFI (cfiCond17) ?RET_LOW load(1, XDATA, add(CFA_XSP16, literal(-5)))
          CFI (cfiCond17) ?RET_HIGH load(1, XDATA, add(CFA_XSP16, literal(-4)))
          CFI (cfiCond17) ?BRET_EXT load(1, XDATA, add(CFA_XSP16, literal(-3)))
          CFI (cfiCond17) DPL0 load(1, XDATA, add(CFA_XSP16, literal(-2)))
          CFI (cfiCond17) DPH0 load(1, XDATA, add(CFA_XSP16, literal(-1)))
          CFI (cfiCond17) CFA_SP SP+0
          CFI (cfiCond17) CFA_XSP16 add(XSP16, 12)
          CFI Block cfiCond18 Using cfiCommon0
          CFI (cfiCond18) Function RoachZStack_ProcessMSGCmd
          CFI (cfiCond18) Conditional ??CrossCallReturnLabel_8
          CFI (cfiCond18) R6 load(1, XDATA, add(CFA_XSP16, literal(-12)))
          CFI (cfiCond18) VB load(1, XDATA, add(CFA_XSP16, literal(-11)))
          CFI (cfiCond18) V0 load(1, XDATA, add(CFA_XSP16, literal(-10)))
          CFI (cfiCond18) V1 load(1, XDATA, add(CFA_XSP16, literal(-9)))
          CFI (cfiCond18) V2 load(1, XDATA, add(CFA_XSP16, literal(-8)))
          CFI (cfiCond18) V3 load(1, XDATA, add(CFA_XSP16, literal(-7)))
          CFI (cfiCond18) R7 load(1, XDATA, add(CFA_XSP16, literal(-6)))
          CFI (cfiCond18) ?RET_LOW load(1, XDATA, add(CFA_XSP16, literal(-5)))
          CFI (cfiCond18) ?RET_HIGH load(1, XDATA, add(CFA_XSP16, literal(-4)))
          CFI (cfiCond18) ?BRET_EXT load(1, XDATA, add(CFA_XSP16, literal(-3)))
          CFI (cfiCond18) DPL0 load(1, XDATA, add(CFA_XSP16, literal(-2)))
          CFI (cfiCond18) DPH0 load(1, XDATA, add(CFA_XSP16, literal(-1)))
          CFI (cfiCond18) CFA_SP SP+0
          CFI (cfiCond18) CFA_XSP16 add(XSP16, 12)
          CFI Block cfiPicker19 Using cfiCommon1
          CFI (cfiPicker19) NoFunction
          CFI (cfiPicker19) Picker
        LCALL   ?Subroutine5 & 0xFFFF
??CrossCallReturnLabel_10:
        MOVX    A,@DPTR
        RET
          CFI EndBlock cfiCond16
          CFI EndBlock cfiCond17
          CFI EndBlock cfiCond18
          CFI EndBlock cfiPicker19

        RSEG BANKED_CODE:CODE:NOROOT(0)
?Subroutine5:
          CFI Block cfiCond20 Using cfiCommon0
          CFI Function RoachZStack_ProcessMSGCmd
          CFI Conditional ??CrossCallReturnLabel_9, ??CrossCallReturnLabel_0
          CFI R6 load(1, XDATA, add(CFA_XSP16, literal(-12)))
          CFI VB load(1, XDATA, add(CFA_XSP16, literal(-11)))
          CFI V0 load(1, XDATA, add(CFA_XSP16, literal(-10)))
          CFI V1 load(1, XDATA, add(CFA_XSP16, literal(-9)))
          CFI V2 load(1, XDATA, add(CFA_XSP16, literal(-8)))
          CFI V3 load(1, XDATA, add(CFA_XSP16, literal(-7)))
          CFI R7 load(1, XDATA, add(CFA_XSP16, literal(-6)))
          CFI ?RET_LOW load(1, XDATA, add(CFA_XSP16, literal(-5)))
          CFI ?RET_HIGH load(1, XDATA, add(CFA_XSP16, literal(-4)))
          CFI ?BRET_EXT load(1, XDATA, add(CFA_XSP16, literal(-3)))
          CFI DPL0 load(1, XDATA, add(CFA_XSP16, literal(-2)))
          CFI DPH0 load(1, XDATA, add(CFA_XSP16, literal(-1)))
          CFI CFA_SP SP+0
          CFI CFA_XSP16 add(XSP16, 12)
          CFI Block cfiCond21 Using cfiCommon0
          CFI (cfiCond21) Function RoachZStack_ProcessMSGCmd
          CFI (cfiCond21) Conditional ??CrossCallReturnLabel_9, ??CrossCallReturnLabel_1
          CFI (cfiCond21) R6 load(1, XDATA, add(CFA_XSP16, literal(-12)))
          CFI (cfiCond21) VB load(1, XDATA, add(CFA_XSP16, literal(-11)))
          CFI (cfiCond21) V0 load(1, XDATA, add(CFA_XSP16, literal(-10)))
          CFI (cfiCond21) V1 load(1, XDATA, add(CFA_XSP16, literal(-9)))
          CFI (cfiCond21) V2 load(1, XDATA, add(CFA_XSP16, literal(-8)))
          CFI (cfiCond21) V3 load(1, XDATA, add(CFA_XSP16, literal(-7)))
          CFI (cfiCond21) R7 load(1, XDATA, add(CFA_XSP16, literal(-6)))
          CFI (cfiCond21) ?RET_LOW load(1, XDATA, add(CFA_XSP16, literal(-5)))
          CFI (cfiCond21) ?RET_HIGH load(1, XDATA, add(CFA_XSP16, literal(-4)))
          CFI (cfiCond21) ?BRET_EXT load(1, XDATA, add(CFA_XSP16, literal(-3)))
          CFI (cfiCond21) DPL0 load(1, XDATA, add(CFA_XSP16, literal(-2)))
          CFI (cfiCond21) DPH0 load(1, XDATA, add(CFA_XSP16, literal(-1)))
          CFI (cfiCond21) CFA_SP SP+0
          CFI (cfiCond21) CFA_XSP16 add(XSP16, 12)
          CFI Block cfiCond22 Using cfiCommon0
          CFI (cfiCond22) Function RoachZStack_ProcessMSGCmd
          CFI (cfiCond22) Conditional ??CrossCallReturnLabel_10, ??CrossCallReturnLabel_7
          CFI (cfiCond22) R6 load(1, XDATA, add(CFA_XSP16, literal(-12)))
          CFI (cfiCond22) VB load(1, XDATA, add(CFA_XSP16, literal(-11)))
          CFI (cfiCond22) V0 load(1, XDATA, add(CFA_XSP16, literal(-10)))
          CFI (cfiCond22) V1 load(1, XDATA, add(CFA_XSP16, literal(-9)))
          CFI (cfiCond22) V2 load(1, XDATA, add(CFA_XSP16, literal(-8)))
          CFI (cfiCond22) V3 load(1, XDATA, add(CFA_XSP16, literal(-7)))
          CFI (cfiCond22) R7 load(1, XDATA, add(CFA_XSP16, literal(-6)))
          CFI (cfiCond22) ?RET_LOW load(1, XDATA, add(CFA_XSP16, literal(-5)))
          CFI (cfiCond22) ?RET_HIGH load(1, XDATA, add(CFA_XSP16, literal(-4)))
          CFI (cfiCond22) ?BRET_EXT load(1, XDATA, add(CFA_XSP16, literal(-3)))
          CFI (cfiCond22) DPL0 load(1, XDATA, add(CFA_XSP16, literal(-2)))
          CFI (cfiCond22) DPH0 load(1, XDATA, add(CFA_XSP16, literal(-1)))
          CFI (cfiCond22) CFA_SP SP+0
          CFI (cfiCond22) CFA_XSP16 add(XSP16, 12)
          CFI Block cfiCond23 Using cfiCommon0
          CFI (cfiCond23) Function RoachZStack_ProcessMSGCmd
          CFI (cfiCond23) Conditional ??CrossCallReturnLabel_10, ??CrossCallReturnLabel_8
          CFI (cfiCond23) R6 load(1, XDATA, add(CFA_XSP16, literal(-12)))
          CFI (cfiCond23) VB load(1, XDATA, add(CFA_XSP16, literal(-11)))
          CFI (cfiCond23) V0 load(1, XDATA, add(CFA_XSP16, literal(-10)))
          CFI (cfiCond23) V1 load(1, XDATA, add(CFA_XSP16, literal(-9)))
          CFI (cfiCond23) V2 load(1, XDATA, add(CFA_XSP16, literal(-8)))
          CFI (cfiCond23) V3 load(1, XDATA, add(CFA_XSP16, literal(-7)))
          CFI (cfiCond23) R7 load(1, XDATA, add(CFA_XSP16, literal(-6)))
          CFI (cfiCond23) ?RET_LOW load(1, XDATA, add(CFA_XSP16, literal(-5)))
          CFI (cfiCond23) ?RET_HIGH load(1, XDATA, add(CFA_XSP16, literal(-4)))
          CFI (cfiCond23) ?BRET_EXT load(1, XDATA, add(CFA_XSP16, literal(-3)))
          CFI (cfiCond23) DPL0 load(1, XDATA, add(CFA_XSP16, literal(-2)))
          CFI (cfiCond23) DPH0 load(1, XDATA, add(CFA_XSP16, literal(-1)))
          CFI (cfiCond23) CFA_SP SP+0
          CFI (cfiCond23) CFA_XSP16 add(XSP16, 12)
          CFI Block cfiCond24 Using cfiCommon0
          CFI (cfiCond24) Function RoachZStack_ProcessEvent
          CFI (cfiCond24) Conditional ??CrossCallReturnLabel_10, ??CrossCallReturnLabel_6
          CFI (cfiCond24) R6 load(1, XDATA, add(CFA_XSP16, literal(-15)))
          CFI (cfiCond24) VB load(1, XDATA, add(CFA_XSP16, literal(-14)))
          CFI (cfiCond24) V0 load(1, XDATA, add(CFA_XSP16, literal(-13)))
          CFI (cfiCond24) V1 load(1, XDATA, add(CFA_XSP16, literal(-12)))
          CFI (cfiCond24) V2 load(1, XDATA, add(CFA_XSP16, literal(-11)))
          CFI (cfiCond24) V3 load(1, XDATA, add(CFA_XSP16, literal(-10)))
          CFI (cfiCond24) V4 load(1, XDATA, add(CFA_XSP16, literal(-9)))
          CFI (cfiCond24) V5 load(1, XDATA, add(CFA_XSP16, literal(-8)))
          CFI (cfiCond24) V6 load(1, XDATA, add(CFA_XSP16, literal(-7)))
          CFI (cfiCond24) R7 load(1, XDATA, add(CFA_XSP16, literal(-6)))
          CFI (cfiCond24) ?RET_LOW load(1, XDATA, add(CFA_XSP16, literal(-5)))
          CFI (cfiCond24) ?RET_HIGH load(1, XDATA, add(CFA_XSP16, literal(-4)))
          CFI (cfiCond24) ?BRET_EXT load(1, XDATA, add(CFA_XSP16, literal(-3)))
          CFI (cfiCond24) DPL0 load(1, XDATA, add(CFA_XSP16, literal(-2)))
          CFI (cfiCond24) DPH0 load(1, XDATA, add(CFA_XSP16, literal(-1)))
          CFI (cfiCond24) CFA_SP SP+0
          CFI (cfiCond24) CFA_XSP16 add(XSP16, 24)
          CFI Block cfiPicker25 Using cfiCommon1
          CFI (cfiPicker25) NoFunction
          CFI (cfiPicker25) Picker
        ADDC    A,#0x0
        MOV     DPH,A
        MOVX    A,@DPTR
        MOV     R0,A
        INC     DPTR
        MOVX    A,@DPTR
        MOV     DPH,A
        MOV     DPL,R0
        RET
          CFI EndBlock cfiCond20
          CFI EndBlock cfiCond21
          CFI EndBlock cfiCond22
          CFI EndBlock cfiCond23
          CFI EndBlock cfiCond24
          CFI EndBlock cfiPicker25
//  498 
//  499 /*********************************************************************
//  500  * @fn      RoachZStack_Send
//  501  *
//  502  * @brief   Send data OTA.
//  503  *
//  504  * @param   none
//  505  *
//  506  * @return  none
//  507  */

        RSEG BANKED_CODE:CODE:NOROOT(0)
//  508 static void RoachZStack_Send(void)
RoachZStack_Send:
          CFI Block cfiBlock26 Using cfiCommon0
          CFI Function RoachZStack_Send
        CODE
//  509 {
        FUNCALL RoachZStack_Send, HalUARTRead
        LOCFRAME ISTACK, 0, STACK
        LOCFRAME PSTACK, 0, STACK
        LOCFRAME XSTACK, 10, STACK
        LOCFRAME IOVERLAY, 0, STATIC
        LOCFRAME DOVERLAY, 0, STATIC
        ARGFRAME ISTACK, 0, STACK
        ARGFRAME PSTACK, 0, STACK
        ARGFRAME XSTACK, 10, STACK
        ARGFRAME IOVERLAY, 0, STATIC
        ARGFRAME DOVERLAY, 0, STATIC
        FUNCALL RoachZStack_Send, AF_DataRequest
        LOCFRAME ISTACK, 0, STACK
        LOCFRAME PSTACK, 0, STACK
        LOCFRAME XSTACK, 19, STACK
        LOCFRAME IOVERLAY, 0, STATIC
        LOCFRAME DOVERLAY, 0, STATIC
        ARGFRAME ISTACK, 0, STACK
        ARGFRAME PSTACK, 0, STACK
        ARGFRAME XSTACK, 19, STACK
        ARGFRAME IOVERLAY, 0, STATIC
        ARGFRAME DOVERLAY, 0, STATIC
        FUNCALL RoachZStack_Send, osal_set_event
        LOCFRAME ISTACK, 0, STACK
        LOCFRAME PSTACK, 0, STACK
        LOCFRAME XSTACK, 10, STACK
        LOCFRAME IOVERLAY, 0, STATIC
        LOCFRAME DOVERLAY, 0, STATIC
        ARGFRAME ISTACK, 0, STACK
        ARGFRAME PSTACK, 0, STACK
        ARGFRAME XSTACK, 10, STACK
        ARGFRAME IOVERLAY, 0, STATIC
        ARGFRAME DOVERLAY, 0, STATIC
        MOV     A,#-0xa
        LCALL   ?BANKED_ENTER_XDATA
          CFI DPH0 load(1, XDATA, add(CFA_XSP16, literal(-1)))
          CFI DPL0 load(1, XDATA, add(CFA_XSP16, literal(-2)))
          CFI ?BRET_EXT load(1, XDATA, add(CFA_XSP16, literal(-3)))
          CFI ?RET_HIGH load(1, XDATA, add(CFA_XSP16, literal(-4)))
          CFI ?RET_LOW load(1, XDATA, add(CFA_XSP16, literal(-5)))
          CFI R7 load(1, XDATA, add(CFA_XSP16, literal(-6)))
          CFI V1 load(1, XDATA, add(CFA_XSP16, literal(-7)))
          CFI V0 load(1, XDATA, add(CFA_XSP16, literal(-8)))
          CFI VB load(1, XDATA, add(CFA_XSP16, literal(-9)))
          CFI R6 load(1, XDATA, add(CFA_XSP16, literal(-10)))
          CFI CFA_SP SP+0
          CFI CFA_XSP16 add(XSP16, 10)
        ; Saved register size: 10
        ; Auto size: 0
//  510 #if SERIAL_APP_LOOPBACK
//  511   if (RoachZStack_TxLen < SERIAL_APP_TX_MAX)
//  512   {
//  513     RoachZStack_TxLen += HalUARTRead(SERIAL_APP_PORT, RoachZStack_TxBuf+RoachZStack_TxLen+1,
//  514                                                     SERIAL_APP_TX_MAX-RoachZStack_TxLen);
//  515   }
//  516 
//  517   if (RoachZStack_TxLen)
//  518   {
//  519     (void)RoachZStack_TxAddr;
//  520     if (HalUARTWrite(SERIAL_APP_PORT, RoachZStack_TxBuf+1, RoachZStack_TxLen))
//  521     {
//  522       RoachZStack_TxLen = 0;
//  523     }
//  524     else
//  525     {
//  526       osal_set_event(RoachZStack_TaskID, ROACHZSTACK_SEND_EVT);
//  527     }
//  528   }
//  529 #else
//  530   if (!RoachZStack_TxLen && 
//  531       (RoachZStack_TxLen = HalUARTRead(SERIAL_APP_PORT, RoachZStack_TxBuf+1, SERIAL_APP_TX_MAX)))
        MOV     DPTR,#RoachZStack_TxLen
        MOVX    A,@DPTR
        JNZ     ??RoachZStack_Send_0
        ; Setup parameters for call to function HalUARTRead
        MOV     R4,#0x50
        MOV     R5,#0x0
        MOV     R2,#(RoachZStack_TxBuf + 1) & 0xff
        MOV     R3,#((RoachZStack_TxBuf + 1) >> 8) & 0xff
        MOV     R1,#0x0
        LCALL   ??HalUARTRead?relay
        MOV     A,R2
        MOV     DPTR,#RoachZStack_TxLen
        MOVX    @DPTR,A
        JZ      ??RoachZStack_Send_1
//  532   {
//  533     // Pre-pend sequence number to the Tx message.
//  534     RoachZStack_TxBuf[0] = ++RoachZStack_TxSeq;
        MOV     DPTR,#RoachZStack_TxSeq
        MOVX    A,@DPTR
        INC     A
        MOVX    @DPTR,A
        MOV     DPTR,#RoachZStack_TxBuf
        MOVX    @DPTR,A
//  535   }
//  536 
//  537   if (RoachZStack_TxLen)
//  538   {
//  539     if (afStatus_SUCCESS != AF_DataRequest(&RoachZStack_TxAddr,
//  540                                            (endPointDesc_t *)&RoachZStack_epDesc,
//  541                                             ROACHZSTACK_CLUSTERID1,
//  542                                             RoachZStack_TxLen+1, RoachZStack_TxBuf,
//  543                                             &RoachZStack_MsgID, 0, AF_DEFAULT_RADIUS))
??RoachZStack_Send_0:
        ; Setup parameters for call to function AF_DataRequest
        MOV     ?V0 + 0,#0x1e
        MOV     R0,#?V0 + 0
        LCALL   ?PUSH_XSTACK_I_ONE
          CFI CFA_XSP16 add(XSP16, 11)
        MOV     ?V0 + 0,#RoachZStack_MsgID & 0xff
        MOV     ?V0 + 1,#(RoachZStack_MsgID >> 8) & 0xff
        MOV     R0,#?V0 + 0
        LCALL   ?PUSH_XSTACK_I_TWO
          CFI CFA_XSP16 add(XSP16, 13)
        MOV     ?V0 + 0,#RoachZStack_TxBuf & 0xff
        MOV     ?V0 + 1,#(RoachZStack_TxBuf >> 8) & 0xff
        MOV     R0,#?V0 + 0
        LCALL   ?PUSH_XSTACK_I_TWO
          CFI CFA_XSP16 add(XSP16, 15)
        MOV     DPTR,#RoachZStack_TxLen
        MOVX    A,@DPTR
        ADD     A,#0x1
        MOV     ?V0 + 0,A
        CLR     A
        ADDC    A,#0x0
        MOV     ?V0 + 1,A
        MOV     R0,#?V0 + 0
        LCALL   ?PUSH_XSTACK_I_TWO
          CFI CFA_XSP16 add(XSP16, 17)
        MOV     ?V0 + 0,#0x1
        MOV     ?V0 + 1,#0x0
        MOV     R0,#?V0 + 0
        LCALL   ?PUSH_XSTACK_I_TWO
          CFI CFA_XSP16 add(XSP16, 19)
        MOV     R1,#0x0
        MOV     R4,#RoachZStack_epDesc & 0xff
        MOV     R5,#(RoachZStack_epDesc >> 8) & 0xff
        MOV     R2,#RoachZStack_TxAddr & 0xff
        MOV     R3,#(RoachZStack_TxAddr >> 8) & 0xff
        LCALL   ??AF_DataRequest?relay
        MOV     A,#0x9
        LCALL   ?DEALLOC_XSTACK8
          CFI CFA_XSP16 add(XSP16, 10)
        MOV     A,R1
        JZ      ??RoachZStack_Send_1
//  544     {
//  545       osal_set_event(RoachZStack_TaskID, ROACHZSTACK_SEND_EVT);
        ; Setup parameters for call to function osal_set_event
        MOV     R2,#0x1
        MOV     R3,#0x0
        MOV     DPTR,#RoachZStack_TaskID
        MOVX    A,@DPTR
        MOV     R1,A
        LCALL   ??osal_set_event?relay
//  546     }
//  547   }
//  548 #endif
//  549 }
??RoachZStack_Send_1:
        MOV     R7,#0x2
        LJMP    ?BANKED_LEAVE_XDATA
          CFI EndBlock cfiBlock26
//  550 
//  551 /*********************************************************************
//  552  * @fn      RoachZStack_Resp
//  553  *
//  554  * @brief   Send data OTA.
//  555  *
//  556  * @param   none
//  557  *
//  558  * @return  none
//  559  */
//  560 static void RoachZStack_Resp(void)
//  561 {
//  562   if (afStatus_SUCCESS != AF_DataRequest(&RoachZStack_RxAddr,
//  563                                          (endPointDesc_t *)&RoachZStack_epDesc,
//  564                                           ROACHZSTACK_CLUSTERID2,
//  565                                           SERIAL_APP_RSP_CNT, RoachZStack_RspBuf,
//  566                                          &RoachZStack_MsgID, 0, AF_DEFAULT_RADIUS))
//  567   {
//  568     osal_set_event(RoachZStack_TaskID, ROACHZSTACK_RESP_EVT);
//  569   }
//  570 }
//  571 
//  572 /*********************************************************************
//  573  * @fn      RoachZStack_CallBack
//  574  *
//  575  * @brief   Send data OTA.
//  576  *
//  577  * @param   port - UART port.
//  578  * @param   event - the UART port event flag.
//  579  *
//  580  * @return  none
//  581  */

        RSEG BANKED_CODE:CODE:NOROOT(0)
//  582 static void RoachZStack_CallBack(uint8 port, uint8 event)
RoachZStack_CallBack:
          CFI Block cfiBlock27 Using cfiCommon0
          CFI Function RoachZStack_CallBack
        CODE
//  583 {
        FUNCALL RoachZStack_CallBack, RoachZStack_Send
        LOCFRAME ISTACK, 0, STACK
        LOCFRAME PSTACK, 0, STACK
        LOCFRAME XSTACK, 9, STACK
        LOCFRAME IOVERLAY, 0, STATIC
        LOCFRAME DOVERLAY, 0, STATIC
        ARGFRAME ISTACK, 0, STACK
        ARGFRAME PSTACK, 0, STACK
        ARGFRAME XSTACK, 9, STACK
        ARGFRAME IOVERLAY, 0, STATIC
        ARGFRAME DOVERLAY, 0, STATIC
        MOV     A,#-0x9
        LCALL   ?BANKED_ENTER_XDATA
          CFI DPH0 load(1, XDATA, add(CFA_XSP16, literal(-1)))
          CFI DPL0 load(1, XDATA, add(CFA_XSP16, literal(-2)))
          CFI ?BRET_EXT load(1, XDATA, add(CFA_XSP16, literal(-3)))
          CFI ?RET_HIGH load(1, XDATA, add(CFA_XSP16, literal(-4)))
          CFI ?RET_LOW load(1, XDATA, add(CFA_XSP16, literal(-5)))
          CFI R7 load(1, XDATA, add(CFA_XSP16, literal(-6)))
          CFI V0 load(1, XDATA, add(CFA_XSP16, literal(-7)))
          CFI VB load(1, XDATA, add(CFA_XSP16, literal(-8)))
          CFI R6 load(1, XDATA, add(CFA_XSP16, literal(-9)))
          CFI CFA_SP SP+0
          CFI CFA_XSP16 add(XSP16, 9)
        ; Saved register size: 9
        ; Auto size: 0
        MOV     A,R2
        MOV     R6,A
//  584   (void)port;
//  585 
//  586   if ((event & (HAL_UART_RX_FULL | HAL_UART_RX_ABOUT_FULL | HAL_UART_RX_TIMEOUT)) &&
//  587 #if SERIAL_APP_LOOPBACK
//  588       (RoachZStack_TxLen < SERIAL_APP_TX_MAX))
//  589 #else
//  590       !RoachZStack_TxLen)
        MOV     A,#0x7
        ANL     A,R6
        JZ      ??RoachZStack_CallBack_0
        MOV     DPTR,#RoachZStack_TxLen
        MOVX    A,@DPTR
        JNZ     ??RoachZStack_CallBack_0
//  591 #endif
//  592   {
//  593     RoachZStack_Send();
        ; Setup parameters for call to function RoachZStack_Send
        LCALL   ??RoachZStack_Send?relay
//  594   }
//  595 }
??RoachZStack_CallBack_0:
        LJMP    ?Subroutine0 & 0xFFFF
          CFI EndBlock cfiBlock27

        RSEG BANK_RELAYS:CODE:REORDER:NOROOT(0)
??RoachZStack_Init?relay:
        CODE
        LCALL   ?BDISPATCH
        DATA24
        DC24    RoachZStack_Init

        RSEG BANK_RELAYS:CODE:REORDER:NOROOT(0)
??RoachZStack_ProcessEvent?relay:
        CODE
        LCALL   ?BDISPATCH
        DATA24
        DC24    RoachZStack_ProcessEvent

        RSEG BANK_RELAYS:CODE:REORDER:NOROOT(0)
??RoachZStack_ProcessMSGCmd?relay:
        CODE
        LCALL   ?BDISPATCH
        DATA24
        DC24    RoachZStack_ProcessMSGCmd

        RSEG BANK_RELAYS:CODE:REORDER:NOROOT(0)
??RoachZStack_Send?relay:
        CODE
        LCALL   ?BDISPATCH
        DATA24
        DC24    RoachZStack_Send

        RSEG BANK_RELAYS:CODE:REORDER:NOROOT(0)
??RoachZStack_CallBack?relay:
        CODE
        LCALL   ?BDISPATCH
        DATA24
        DC24    RoachZStack_CallBack

        RSEG XDATA_ROM_C:CONST:REORDER:NOROOT(0)
        DATA8
`?<Constant "RoachZStack">`:
        DB "RoachZStack"

        RSEG XDATA_ROM_C:CONST:REORDER:NOROOT(0)
        DATA8
`?<Constant {1, 2, 3, 4, 5}>`:
        DB 1
        DB 2
        DB 3
        DB 4
        DB 5

        END
//  596 
//  597 /*********************************************************************
//  598 *********************************************************************/
// 
// 1 261 bytes in segment BANKED_CODE
//    30 bytes in segment BANK_RELAYS
//    39 bytes in segment XDATA_ROM_C
//   114 bytes in segment XDATA_Z
// 
// 1 291 bytes of CODE  memory
//    39 bytes of CONST memory
//   114 bytes of XDATA memory
//
//Errors: none
//Warnings: none
