###############################################################################
#                                                                             #
# IAR C/C++ Compiler V8.20.2.41139 for 8051             18/Sep/2013  14:29:55 #
# Copyright 2004-2013 IAR Systems AB.                                         #
#                                                                             #
#    Core               =  plain                                              #
#    Code model         =  banked                                             #
#    Data model         =  large                                              #
#    Calling convention =  xdata reentrant                                    #
#    Constant location  =  data_rom                                           #
#    Dptr setup         =  1,16                                               #
#                                                                             #
#    Source file        =  C:\Texas Instruments\ZStack-CC2530-2.5.1a\Projects #
#                          \zstack\Utilities\SerialApp\Source\SerialApp.c     #
#    Command line       =  -f "C:\Texas Instruments\ZStack-CC2530-2.5.1a\Proj #
#                          ects\zstack\Utilities\SerialApp\CC2530DB\..\..\..\ #
#                          Tools\CC2530DB\f8wCoord.cfg" (-DCPU32MHZ           #
#                          -DROOT=__near_func -DMAC_CFG_APP_PENDING_QUEUE=TRU #
#                          E -DMAC_CFG_TX_DATA_MAX=5 -DMAC_CFG_TX_MAX=8       #
#                          -DMAC_CFG_RX_MAX=5 -DZDO_COORDINATOR -DRTR_NWK)    #
#                          -f "C:\Texas Instruments\ZStack-CC2530-2.5.1a\Proj #
#                          ects\zstack\Utilities\SerialApp\CC2530DB\..\..\..\ #
#                          Tools\CC2530DB\f8wConfig.cfg" (-DZIGBEEPRO         #
#                          -DSECURE=0 -DZG_SECURE_DYNAMIC=0 -DREFLECTOR       #
#                          -DDEFAULT_CHANLIST=0x00000800                      #
#                          -DZDAPP_CONFIG_PAN_ID=0xFFFF                       #
#                          -DNWK_START_DELAY=100 -DEXTENDED_JOINING_RANDOM_MA #
#                          SK=0x007F -DBEACON_REQUEST_DELAY=100               #
#                          -DBEACON_REQ_DELAY_MASK=0x00FF                     #
#                          -DLINK_STATUS_JITTER_MASK=0x007F                   #
#                          -DROUTE_EXPIRY_TIME=30 -DAPSC_ACK_WAIT_DURATION_PO #
#                          LLED=3000 -DNWK_INDIRECT_MSG_TIMEOUT=7             #
#                          -DMAX_RREQ_ENTRIES=8 -DAPSC_MAX_FRAME_RETRIES=3    #
#                          -DNWK_MAX_DATA_RETRIES=2                           #
#                          -DMAX_POLL_FAILURE_RETRIES=2 -DMAX_BCAST=9         #
#                          -DAPS_MAX_GROUPS=16 -DMAX_RTG_ENTRIES=40           #
#                          -DNWK_MAX_BINDING_ENTRIES=4                        #
#                          -DMAX_BINDING_CLUSTER_IDS=4 "-DDEFAULT_KEY={0x01,  #
#                          0x03, 0x05, 0x07, 0x09, 0x0B, 0x0D, 0x0F, 0x00,    #
#                          0x02, 0x04, 0x06, 0x08, 0x0A, 0x0C, 0x0D}"         #
#                          -DMAC_MAX_FRAME_SIZE=116                           #
#                          -DZDNWKMGR_MIN_TRANSMISSIONS=20 "-DCONST=const     #
#                          __code" -DGENERIC=__generic                        #
#                          -DRFD_RCVC_ALWAYS_ON=FALSE -DPOLL_RATE=1000        #
#                          -DQUEUED_POLL_RATE=100 -DRESPONSE_POLL_RATE=100)   #
#                          -DREJOIN_POLL_RATE=440 "C:\Texas                   #
#                          Instruments\ZStack-CC2530-2.5.1a\Projects\zstack\U #
#                          tilities\SerialApp\Source\SerialApp.c" -D          #
#                          HAL_UART=TRUE -D SERIAL_APP_PORT=0 -D              #
#                          LCD_SUPPORTED -lC "C:\Texas                        #
#                          Instruments\ZStack-CC2530-2.5.1a\Projects\zstack\U #
#                          tilities\SerialApp\CC2530DB\CoordinatorEB\List\"   #
#                          -lA "C:\Texas Instruments\ZStack-CC2530-2.5.1a\Pro #
#                          jects\zstack\Utilities\SerialApp\CC2530DB\Coordina #
#                          torEB\List\" --diag_suppress Pe001,Pa010 -o        #
#                          "C:\Texas Instruments\ZStack-CC2530-2.5.1a\Project #
#                          s\zstack\Utilities\SerialApp\CC2530DB\CoordinatorE #
#                          B\Obj\" -e --no_code_motion --debug --core=plain   #
#                          --dptr=16,1 --data_model=large                     #
#                          --code_model=banked --calling_convention=xdata_ree #
#                          ntrant --place_constants=data_rom                  #
#                          --nr_virtual_regs 16 -I "C:\Texas                  #
#                          Instruments\ZStack-CC2530-2.5.1a\Projects\zstack\U #
#                          tilities\SerialApp\CC2530DB\" -I "C:\Texas         #
#                          Instruments\ZStack-CC2530-2.5.1a\Projects\zstack\U #
#                          tilities\SerialApp\CC2530DB\..\Source\" -I         #
#                          "C:\Texas Instruments\ZStack-CC2530-2.5.1a\Project #
#                          s\zstack\Utilities\SerialApp\CC2530DB\..\..\..\ZMa #
#                          in\TI2530DB\" -I "C:\Texas                         #
#                          Instruments\ZStack-CC2530-2.5.1a\Projects\zstack\U #
#                          tilities\SerialApp\CC2530DB\..\..\..\..\..\Compone #
#                          nts\hal\include\" -I "C:\Texas                     #
#                          Instruments\ZStack-CC2530-2.5.1a\Projects\zstack\U #
#                          tilities\SerialApp\CC2530DB\..\..\..\..\..\Compone #
#                          nts\hal\target\CC2530EB\" -I "C:\Texas             #
#                          Instruments\ZStack-CC2530-2.5.1a\Projects\zstack\U #
#                          tilities\SerialApp\CC2530DB\..\..\..\..\..\Compone #
#                          nts\mac\include\" -I "C:\Texas                     #
#                          Instruments\ZStack-CC2530-2.5.1a\Projects\zstack\U #
#                          tilities\SerialApp\CC2530DB\..\..\..\..\..\Compone #
#                          nts\mac\high_level\" -I "C:\Texas                  #
#                          Instruments\ZStack-CC2530-2.5.1a\Projects\zstack\U #
#                          tilities\SerialApp\CC2530DB\..\..\..\..\..\Compone #
#                          nts\mac\low_level\srf04\" -I "C:\Texas             #
#                          Instruments\ZStack-CC2530-2.5.1a\Projects\zstack\U #
#                          tilities\SerialApp\CC2530DB\..\..\..\..\..\Compone #
#                          nts\mac\low_level\srf04\single_chip\" -I           #
#                          "C:\Texas Instruments\ZStack-CC2530-2.5.1a\Project #
#                          s\zstack\Utilities\SerialApp\CC2530DB\..\..\..\..\ #
#                          ..\Components\mt\" -I "C:\Texas                    #
#                          Instruments\ZStack-CC2530-2.5.1a\Projects\zstack\U #
#                          tilities\SerialApp\CC2530DB\..\..\..\..\..\Compone #
#                          nts\osal\include\" -I "C:\Texas                    #
#                          Instruments\ZStack-CC2530-2.5.1a\Projects\zstack\U #
#                          tilities\SerialApp\CC2530DB\..\..\..\..\..\Compone #
#                          nts\services\saddr\" -I "C:\Texas                  #
#                          Instruments\ZStack-CC2530-2.5.1a\Projects\zstack\U #
#                          tilities\SerialApp\CC2530DB\..\..\..\..\..\Compone #
#                          nts\services\sdata\" -I "C:\Texas                  #
#                          Instruments\ZStack-CC2530-2.5.1a\Projects\zstack\U #
#                          tilities\SerialApp\CC2530DB\..\..\..\..\..\Compone #
#                          nts\stack\af\" -I "C:\Texas                        #
#                          Instruments\ZStack-CC2530-2.5.1a\Projects\zstack\U #
#                          tilities\SerialApp\CC2530DB\..\..\..\..\..\Compone #
#                          nts\stack\nwk\" -I "C:\Texas                       #
#                          Instruments\ZStack-CC2530-2.5.1a\Projects\zstack\U #
#                          tilities\SerialApp\CC2530DB\..\..\..\..\..\Compone #
#                          nts\stack\sapi\" -I "C:\Texas                      #
#                          Instruments\ZStack-CC2530-2.5.1a\Projects\zstack\U #
#                          tilities\SerialApp\CC2530DB\..\..\..\..\..\Compone #
#                          nts\stack\sec\" -I "C:\Texas                       #
#                          Instruments\ZStack-CC2530-2.5.1a\Projects\zstack\U #
#                          tilities\SerialApp\CC2530DB\..\..\..\..\..\Compone #
#                          nts\stack\sys\" -I "C:\Texas                       #
#                          Instruments\ZStack-CC2530-2.5.1a\Projects\zstack\U #
#                          tilities\SerialApp\CC2530DB\..\..\..\..\..\Compone #
#                          nts\stack\zdo\" -I "C:\Texas                       #
#                          Instruments\ZStack-CC2530-2.5.1a\Projects\zstack\U #
#                          tilities\SerialApp\CC2530DB\..\..\..\..\..\Compone #
#                          nts\zmac\" -I "C:\Texas Instruments\ZStack-CC2530- #
#                          2.5.1a\Projects\zstack\Utilities\SerialApp\CC2530D #
#                          B\..\..\..\..\..\Components\zmac\f8w\" -Ohz        #
#                          --require_prototypes                               #
#    List file          =  C:\Texas Instruments\ZStack-CC2530-2.5.1a\Projects #
#                          \zstack\Utilities\SerialApp\CC2530DB\CoordinatorEB #
#                          \List\SerialApp.lst                                #
#    Object file        =  C:\Texas Instruments\ZStack-CC2530-2.5.1a\Projects #
#                          \zstack\Utilities\SerialApp\CC2530DB\CoordinatorEB #
#                          \Obj\SerialApp.r51                                 #
#                                                                             #
#                                                                             #
###############################################################################

C:\Texas Instruments\ZStack-CC2530-2.5.1a\Projects\zstack\Utilities\SerialApp\Source\SerialApp.c
      1          /**************************************************************************************************
      2            Filename:       SerialApp.c
      3            Revised:        $Date: 2009-03-29 10:51:47 -0700 (Sun, 29 Mar 2009) $
      4            Revision:       $Revision: 19585 $
      5          
      6            Description -   Serial Transfer Application (no Profile).
      7          
      8          
      9            Copyright 2004-2009 Texas Instruments Incorporated. All rights reserved.
     10          
     11            IMPORTANT: Your use of this Software is limited to those specific rights
     12            granted under the terms of a software license agreement between the user
     13            who downloaded the software, his/her employer (which must be your employer)
     14            and Texas Instruments Incorporated (the "License").  You may not use this
     15            Software unless you agree to abide by the terms of the License. The License
     16            limits your use, and you acknowledge, that the Software may not be modified,
     17            copied or distributed unless embedded on a Texas Instruments microcontroller
     18            or used solely and exclusively in conjunction with a Texas Instruments radio
     19            frequency transceiver, which is integrated into your product.  Other than for
     20            the foregoing purpose, you may not use, reproduce, copy, prepare derivative
     21            works of, modify, distribute, perform, display or sell this Software and/or
     22            its documentation for any purpose.
     23          
     24            YOU FURTHER ACKNOWLEDGE AND AGREE THAT THE SOFTWARE AND DOCUMENTATION ARE
     25            PROVIDED “AS IS” WITHOUT WARRANTY OF ANY KIND, EITHER EXPRESS OR IMPLIED, 
     26            INCLUDING WITHOUT LIMITATION, ANY WARRANTY OF MERCHANTABILITY, TITLE, 
     27            NON-INFRINGEMENT AND FITNESS FOR A PARTICULAR PURPOSE. IN NO EVENT SHALL
     28            TEXAS INSTRUMENTS OR ITS LICENSORS BE LIABLE OR OBLIGATED UNDER CONTRACT,
     29            NEGLIGENCE, STRICT LIABILITY, CONTRIBUTION, BREACH OF WARRANTY, OR OTHER
     30            LEGAL EQUITABLE THEORY ANY DIRECT OR INDIRECT DAMAGES OR EXPENSES
     31            INCLUDING BUT NOT LIMITED TO ANY INCIDENTAL, SPECIAL, INDIRECT, PUNITIVE
     32            OR CONSEQUENTIAL DAMAGES, LOST PROFITS OR LOST DATA, COST OF PROCUREMENT
     33            OF SUBSTITUTE GOODS, TECHNOLOGY, SERVICES, OR ANY CLAIMS BY THIRD PARTIES
     34            (INCLUDING BUT NOT LIMITED TO ANY DEFENSE THEREOF), OR OTHER SIMILAR COSTS.
     35          
     36            Should you have any questions regarding your right to use this Software,
     37            contact Texas Instruments Incorporated at www.TI.com. 
     38          **************************************************************************************************/
     39          
     40          /*********************************************************************
     41            This sample application is basically a cable replacement
     42            and it should be customized for your application. A PC
     43            (or other device) sends data via the serial port to this
     44            application's device.  This device transmits the message
     45            to another device with the same application running. The
     46            other device receives the over-the-air message and sends
     47            it to a PC (or other device) connected to its serial port.
     48          				
     49            This application doesn't have a profile, so it handles everything directly.
     50          
     51            Key control:
     52              SW1:
     53              SW2:  initiates end device binding
     54              SW3:
     55              SW4:  initiates a match description request
     56          *********************************************************************/
     57          
     58          /*********************************************************************
     59           * INCLUDES
     60           */
     61          
     62          #include "AF.h"
     63          #include "OnBoard.h"
     64          #include "OSAL_Tasks.h"
     65          #include "SerialApp.h"
     66          #include "ZDApp.h"
     67          #include "ZDObject.h"
     68          #include "ZDProfile.h"
     69          
     70          #include "hal_drivers.h"
     71          #include "hal_key.h"
     72          #if defined ( LCD_SUPPORTED )
     73            #include "hal_lcd.h"
     74          #endif
     75          #include "hal_led.h"
     76          #include "hal_uart.h"
     77          
     78          /*********************************************************************
     79           * MACROS
     80           */
     81          
     82          /*********************************************************************
     83           * CONSTANTS
     84           */
     85          
     86          #if !defined( SERIAL_APP_PORT )
     87          #define SERIAL_APP_PORT  0
     88          #endif
     89          
     90          #if !defined( SERIAL_APP_BAUD )
     91          #define SERIAL_APP_BAUD  HAL_UART_BR_38400
     92          //#define SERIAL_APP_BAUD  HAL_UART_BR_115200
     93          #endif
     94          
     95          // When the Rx buf space is less than this threshold, invoke the Rx callback.
     96          #if !defined( SERIAL_APP_THRESH )
     97          #define SERIAL_APP_THRESH  64
     98          #endif
     99          
    100          #if !defined( SERIAL_APP_RX_SZ )
    101          #define SERIAL_APP_RX_SZ  128
    102          #endif
    103          
    104          #if !defined( SERIAL_APP_TX_SZ )
    105          #define SERIAL_APP_TX_SZ  128
    106          #endif
    107          
    108          // Millisecs of idle time after a byte is received before invoking Rx callback.
    109          #if !defined( SERIAL_APP_IDLE )
    110          #define SERIAL_APP_IDLE  6
    111          #endif
    112          
    113          // Loopback Rx bytes to Tx for throughput testing.
    114          #if !defined( SERIAL_APP_LOOPBACK )
    115          #define SERIAL_APP_LOOPBACK  FALSE
    116          #endif
    117          
    118          // This is the max byte count per OTA message.
    119          #if !defined( SERIAL_APP_TX_MAX )
    120          #define SERIAL_APP_TX_MAX  80
    121          #endif
    122          
    123          #define SERIAL_APP_RSP_CNT  4
    124          
    125          // This list should be filled with Application specific Cluster IDs.

   \                                 In  segment XDATA_ROM_C, align 1
    126          const cId_t SerialApp_ClusterList[SERIALAPP_MAX_CLUSTERS] =
   \                     SerialApp_ClusterList:
   \   000000   0100         DW 1
   \   000002   0200         DW 2
    127          {
    128            SERIALAPP_CLUSTERID1,
    129            SERIALAPP_CLUSTERID2
    130          };
    131          

   \                                 In  segment XDATA_ROM_C, align 1
    132          const SimpleDescriptionFormat_t SerialApp_SimpleDesc =
   \                     SerialApp_SimpleDesc:
   \   000000   0B           DB 11
   \   000001   050F         DW 3845
   \   000003   0100         DW 1
   \   000005   00           DB 0
   \   000006   02           DB 2
   \   000007   ....         DW SerialApp_ClusterList
   \   000009   02           DB 2
   \   00000A   ....         DW SerialApp_ClusterList
    133          {
    134            SERIALAPP_ENDPOINT,              //  int   Endpoint;
    135            SERIALAPP_PROFID,                //  uint16 AppProfId[2];
    136            SERIALAPP_DEVICEID,              //  uint16 AppDeviceId[2];
    137            SERIALAPP_DEVICE_VERSION,        //  int   AppDevVer:4;
    138            SERIALAPP_FLAGS,                 //  int   AppFlags:4;
    139            SERIALAPP_MAX_CLUSTERS,          //  byte  AppNumInClusters;
    140            (cId_t *)SerialApp_ClusterList,  //  byte *pAppInClusterList;
    141            SERIALAPP_MAX_CLUSTERS,          //  byte  AppNumOutClusters;
    142            (cId_t *)SerialApp_ClusterList   //  byte *pAppOutClusterList;
    143          };
    144          

   \                                 In  segment XDATA_ROM_C, align 1
    145          const endPointDesc_t SerialApp_epDesc =
   \                     SerialApp_epDesc:
   \   000000   0B           DB 11
   \   000001   ....         DW SerialApp_TaskID
   \   000003   ....         DW SerialApp_SimpleDesc
   \   000005   00           DB 0
    146          {
    147            SERIALAPP_ENDPOINT,
    148           &SerialApp_TaskID,
    149            (SimpleDescriptionFormat_t *)&SerialApp_SimpleDesc,
    150            noLatencyReqs
    151          };
    152          
    153          /*********************************************************************
    154           * TYPEDEFS
    155           */
    156          
    157          /*********************************************************************
    158           * GLOBAL VARIABLES
    159           */
    160          

   \                                 In  segment XDATA_Z, align 1, keep-with-next
    161          uint8 SerialApp_TaskID;    // Task ID for internal task/event processing.
   \                     SerialApp_TaskID:
   \   000000                DS 1
   \   000001                REQUIRE __INIT_XDATA_Z
    162          
    163          /*********************************************************************
    164           * EXTERNAL VARIABLES
    165           */
    166          
    167          /*********************************************************************
    168           * EXTERNAL FUNCTIONS
    169           */
    170          
    171          /*********************************************************************
    172           * LOCAL VARIABLES
    173           */
    174          

   \                                 In  segment XDATA_Z, align 1, keep-with-next
    175          static uint8 SerialApp_MsgID;
   \                     SerialApp_MsgID:
   \   000000                DS 1
   \   000001                REQUIRE __INIT_XDATA_Z
    176          

   \                                 In  segment XDATA_Z, align 1, keep-with-next
    177          static afAddrType_t SerialApp_TxAddr;
   \                     SerialApp_TxAddr:
   \   000000                DS 12
   \   00000C                REQUIRE __INIT_XDATA_Z

   \                                 In  segment XDATA_Z, align 1, keep-with-next
    178          static uint8 SerialApp_TxSeq;
   \                     SerialApp_TxSeq:
   \   000000                DS 1
   \   000001                REQUIRE __INIT_XDATA_Z

   \                                 In  segment XDATA_Z, align 1, keep-with-next
    179          static uint8 SerialApp_TxBuf[SERIAL_APP_TX_MAX+1];
   \                     SerialApp_TxBuf:
   \   000000                DS 81
   \   000051                REQUIRE __INIT_XDATA_Z

   \                                 In  segment XDATA_Z, align 1, keep-with-next
    180          static uint8 SerialApp_TxLen;
   \                     SerialApp_TxLen:
   \   000000                DS 1
   \   000001                REQUIRE __INIT_XDATA_Z
    181          

   \                                 In  segment XDATA_Z, align 1, keep-with-next
    182          static afAddrType_t SerialApp_RxAddr;
   \                     SerialApp_RxAddr:
   \   000000                DS 12
   \   00000C                REQUIRE __INIT_XDATA_Z

   \                                 In  segment XDATA_Z, align 1, keep-with-next
    183          static uint8 SerialApp_RxSeq;
   \                     SerialApp_RxSeq:
   \   000000                DS 1
   \   000001                REQUIRE __INIT_XDATA_Z

   \                                 In  segment XDATA_Z, align 1, keep-with-next
    184          static uint8 SerialApp_RspBuf[SERIAL_APP_RSP_CNT];
   \                     SerialApp_RspBuf:
   \   000000                DS 4
   \   000004                REQUIRE __INIT_XDATA_Z
    185          
    186          /*********************************************************************
    187           * LOCAL FUNCTIONS
    188           */
    189          
    190          static void SerialApp_ProcessZDOMsgs( zdoIncomingMsg_t *inMsg );
    191          static void SerialApp_HandleKeys( uint8 shift, uint8 keys );
    192          static void SerialApp_ProcessMSGCmd( afIncomingMSGPacket_t *pkt );
    193          static void SerialApp_Send(void);
    194          static void SerialApp_Resp(void);
    195          static void SerialApp_CallBack(uint8 port, uint8 event);
    196          
    197          /*********************************************************************
    198           * @fn      SerialApp_Init
    199           *
    200           * @brief   This is called during OSAL tasks' initialization.
    201           *
    202           * @param   task_id - the Task ID assigned by OSAL.
    203           *
    204           * @return  none
    205           */

   \                                 In  segment BANKED_CODE, align 1, keep-with-next
    206          void SerialApp_Init( uint8 task_id )
   \                     SerialApp_Init:
    207          {
   \   000000   74F7         MOV     A,#-0x9
   \   000002   12....       LCALL   ?BANKED_ENTER_XDATA
   \   000005                ; Saved register size: 9
   \   000005                ; Auto size: 29
   \   000005   74E3         MOV     A,#-0x1d
   \   000007   12....       LCALL   ?ALLOC_XSTACK8
   \   00000A   E9           MOV     A,R1
   \   00000B   FE           MOV     R6,A
    208            halUARTCfg_t uartConfig;
    209          
    210            SerialApp_TaskID = task_id;
   \   00000C   90....       MOV     DPTR,#SerialApp_TaskID
   \   00000F   F0           MOVX    @DPTR,A
    211            SerialApp_RxSeq = 0xC3;
   \   000010   90....       MOV     DPTR,#SerialApp_RxSeq
   \   000013   74C3         MOV     A,#-0x3d
   \   000015   F0           MOVX    @DPTR,A
    212          
    213            afRegister( (endPointDesc_t *)&SerialApp_epDesc );
   \   000016                ; Setup parameters for call to function afRegister
   \   000016   7A..         MOV     R2,#SerialApp_epDesc & 0xff
   \   000018   7B..         MOV     R3,#(SerialApp_epDesc >> 8) & 0xff
   \   00001A   12....       LCALL   ??afRegister?relay
    214          
    215            RegisterForKeys( task_id );
   \   00001D                ; Setup parameters for call to function RegisterForKeys
   \   00001D   EE           MOV     A,R6
   \   00001E   F9           MOV     R1,A
   \   00001F   12....       LCALL   ??RegisterForKeys?relay
    216          
    217            uartConfig.configured           = TRUE;              // 2x30 don't care - see uart driver.
   \   000022   85..82       MOV     DPL,?XSP + 0
   \   000025   85..83       MOV     DPH,?XSP + 1
   \   000028   7401         MOV     A,#0x1
   \   00002A   F0           MOVX    @DPTR,A
    218            uartConfig.baudRate             = SERIAL_APP_BAUD;
   \   00002B   12....       LCALL   ?XSTACK_DISP0_8
   \   00002E   7402         MOV     A,#0x2
   \   000030   F0           MOVX    @DPTR,A
    219            uartConfig.flowControl          = TRUE;
   \   000031   12....       LCALL   ?XSTACK_DISP0_8
   \   000034   7401         MOV     A,#0x1
   \   000036   F0           MOVX    @DPTR,A
    220            uartConfig.flowControlThreshold = SERIAL_APP_THRESH; // 2x30 don't care - see uart driver.
   \   000037   7403         MOV     A,#0x3
   \   000039   12....       LCALL   ?XSTACK_DISP0_8
   \   00003C   7440         MOV     A,#0x40
   \   00003E   F0           MOVX    @DPTR,A
   \   00003F   A3           INC     DPTR
   \   000040   E4           CLR     A
   \   000041   F0           MOVX    @DPTR,A
    221            uartConfig.rx.maxBufSize        = SERIAL_APP_RX_SZ;  // 2x30 don't care - see uart driver.
   \   000042   740A         MOV     A,#0xa
   \   000044   12....       LCALL   ?XSTACK_DISP0_8
   \   000047   7480         MOV     A,#-0x80
   \   000049   F0           MOVX    @DPTR,A
   \   00004A   A3           INC     DPTR
   \   00004B   E4           CLR     A
   \   00004C   F0           MOVX    @DPTR,A
    222            uartConfig.tx.maxBufSize        = SERIAL_APP_TX_SZ;  // 2x30 don't care - see uart driver.
   \   00004D   7412         MOV     A,#0x12
   \   00004F   12....       LCALL   ?XSTACK_DISP0_8
   \   000052   7480         MOV     A,#-0x80
   \   000054   F0           MOVX    @DPTR,A
   \   000055   A3           INC     DPTR
   \   000056   E4           CLR     A
   \   000057   F0           MOVX    @DPTR,A
    223            uartConfig.idleTimeout          = SERIAL_APP_IDLE;   // 2x30 don't care - see uart driver.
   \   000058   7405         MOV     A,#0x5
   \   00005A   12....       LCALL   ?XSTACK_DISP0_8
   \   00005D   7406         MOV     A,#0x6
   \   00005F   F0           MOVX    @DPTR,A
    224            uartConfig.intEnable            = TRUE;              // 2x30 don't care - see uart driver.
   \   000060   7416         MOV     A,#0x16
   \   000062   12....       LCALL   ?XSTACK_DISP0_8
   \   000065   7401         MOV     A,#0x1
   \   000067   F0           MOVX    @DPTR,A
    225            uartConfig.callBackFunc         = SerialApp_CallBack;
   \   000068   741B         MOV     A,#0x1b
   \   00006A   12....       LCALL   ?XSTACK_DISP0_8
   \   00006D   74..         MOV     A,#??SerialApp_CallBack?relay & 0xff
   \   00006F   F0           MOVX    @DPTR,A
   \   000070   A3           INC     DPTR
   \   000071   74..         MOV     A,#(??SerialApp_CallBack?relay >> 8) & 0xff
   \   000073   12....       LCALL   ?Subroutine3 & 0xFFFF
    226            HalUARTOpen (SERIAL_APP_PORT, &uartConfig);
   \                     ??CrossCallReturnLabel_2:
   \   000076   AA82         MOV     R2,DPL
   \   000078   AB83         MOV     R3,DPH
   \   00007A   7900         MOV     R1,#0x0
   \   00007C   12....       LCALL   ??HalUARTOpen?relay
    227          
    228          #if defined ( LCD_SUPPORTED )
    229            HalLcdWriteString( "SerialApp", HAL_LCD_LINE_2 );
   \   00007F                ; Setup parameters for call to function HalLcdWriteString
   \   00007F   7902         MOV     R1,#0x2
   \   000081   7A..         MOV     R2,#`?<Constant "SerialApp">` & 0xff
   \   000083   7B..         MOV     R3,#(`?<Constant "SerialApp">` >> 8) & 0xff
   \   000085   12....       LCALL   ??HalLcdWriteString?relay
    230          #endif
    231            
    232            ZDO_RegisterForZDOMsg( SerialApp_TaskID, End_Device_Bind_rsp );
   \   000088                ; Setup parameters for call to function ZDO_RegisterForZDOMsg
   \   000088   7A20         MOV     R2,#0x20
   \   00008A   7B80         MOV     R3,#-0x80
   \   00008C   90....       MOV     DPTR,#SerialApp_TaskID
   \   00008F   E0           MOVX    A,@DPTR
   \   000090   F9           MOV     R1,A
   \   000091   12....       LCALL   ??ZDO_RegisterForZDOMsg?relay
    233            ZDO_RegisterForZDOMsg( SerialApp_TaskID, Match_Desc_rsp );
   \   000094                ; Setup parameters for call to function ZDO_RegisterForZDOMsg
   \   000094   7A06         MOV     R2,#0x6
   \   000096   7B80         MOV     R3,#-0x80
   \   000098   90....       MOV     DPTR,#SerialApp_TaskID
   \   00009B   E0           MOVX    A,@DPTR
   \   00009C   F9           MOV     R1,A
   \   00009D   12....       LCALL   ??ZDO_RegisterForZDOMsg?relay
    234          }
   \   0000A0   741D         MOV     A,#0x1d
   \   0000A2   12....       LCALL   ?DEALLOC_XSTACK8
   \   0000A5                REQUIRE ?Subroutine0
   \   0000A5                ; // Fall through to label ?Subroutine0

   \                                 In  segment BANKED_CODE, align 1, keep-with-next
   \                     ?Subroutine0:
   \   000000   7F01         MOV     R7,#0x1
   \   000002   02....       LJMP    ?BANKED_LEAVE_XDATA

   \                                 In  segment BANKED_CODE, align 1, keep-with-next
   \                     ?Subroutine3:
   \   000000   F0           MOVX    @DPTR,A
   \   000001                ; Setup parameters for call to function HalUARTOpen
   \   000001   85..82       MOV     DPL,?XSP + 0
   \   000004   85..83       MOV     DPH,?XSP + 1
   \   000007   22           RET
    235          
    236          /*********************************************************************
    237           * @fn      SerialApp_ProcessEvent
    238           *
    239           * @brief   Generic Application Task event processor.
    240           *
    241           * @param   task_id  - The OSAL assigned task ID.
    242           * @param   events   - Bit map of events to process.
    243           *
    244           * @return  Event flags of all unprocessed events.
    245           */

   \                                 In  segment BANKED_CODE, align 1, keep-with-next
    246          UINT16 SerialApp_ProcessEvent( uint8 task_id, UINT16 events )
   \                     SerialApp_ProcessEvent:
    247          {
   \   000000   74F1         MOV     A,#-0xf
   \   000002   12....       LCALL   ?BANKED_ENTER_XDATA
   \   000005                ; Saved register size: 15
   \   000005                ; Auto size: 9
   \   000005   74F7         MOV     A,#-0x9
   \   000007   12....       LCALL   ?ALLOC_XSTACK8
   \   00000A   8A..         MOV     ?V0 + 0,R2
   \   00000C   8B..         MOV     ?V0 + 1,R3
    248            (void)task_id;  // Intentionally unreferenced parameter
    249            
    250            if ( events & SYS_EVENT_MSG )
   \   00000E   EB           MOV     A,R3
   \   00000F   5480         ANL     A,#0x80
   \   000011   701C         JNZ     ??SerialApp_ProcessEvent_0
    251            {
    252              afIncomingMSGPacket_t *MSGpkt;
    253          
    254              while ( (MSGpkt = (afIncomingMSGPacket_t *)osal_msg_receive( SerialApp_TaskID )) )
    255              {
    256                switch ( MSGpkt->hdr.event )
    257                {
    258                case ZDO_CB_MSG:
    259                  SerialApp_ProcessZDOMsgs( (zdoIncomingMsg_t *)MSGpkt );
    260                  break;
    261                    
    262                case KEY_CHANGE:
    263                  SerialApp_HandleKeys( ((keyChange_t *)MSGpkt)->state, ((keyChange_t *)MSGpkt)->keys );
    264                  break;
    265          
    266                case AF_INCOMING_MSG_CMD:
    267                  SerialApp_ProcessMSGCmd( MSGpkt );
    268                  break;
    269          
    270                default:
    271                  break;
    272                }
    273          
    274                osal_msg_deallocate( (uint8 *)MSGpkt );
    275              }
    276          
    277              return ( events ^ SYS_EVENT_MSG );
    278            }
    279          
    280            if ( events & SERIALAPP_SEND_EVT )
   \   000013   EA           MOV     A,R2
   \   000014   A2E0         MOV     C,0xE0 /* A   */.0
   \   000016   4003         JC      $+5
   \   000018   02....       LJMP    ??SerialApp_ProcessEvent_1 & 0xFFFF
    281            {
    282              SerialApp_Send();
   \   00001B                ; Setup parameters for call to function SerialApp_Send
   \   00001B   12....       LCALL   ??SerialApp_Send?relay
    283              return ( events ^ SERIALAPP_SEND_EVT );
   \   00001E   E5..         MOV     A,?V0 + 0
   \   000020   6401         XRL     A,#0x1
   \   000022   02....       LJMP    ??SerialApp_ProcessEvent_2 & 0xFFFF
    284            }
   \                     ??SerialApp_ProcessEvent_3:
   \   000025                ; Setup parameters for call to function SerialApp_ProcessMSGCmd
   \   000025   12....       LCALL   ??SerialApp_ProcessMSGCmd?relay
   \                     ??SerialApp_ProcessEvent_4:
   \   000028                ; Setup parameters for call to function osal_msg_deallocate
   \   000028   AA..         MOV     R2,?V0 + 2
   \   00002A   AB..         MOV     R3,?V0 + 3
   \   00002C   12....       LCALL   ??osal_msg_deallocate?relay
   \                     ??SerialApp_ProcessEvent_0:
   \   00002F                ; Setup parameters for call to function osal_msg_receive
   \   00002F   90....       MOV     DPTR,#SerialApp_TaskID
   \   000032   E0           MOVX    A,@DPTR
   \   000033   F9           MOV     R1,A
   \   000034   12....       LCALL   ??osal_msg_receive?relay
   \   000037   8A..         MOV     ?V0 + 2,R2
   \   000039   8B..         MOV     ?V0 + 3,R3
   \   00003B   EA           MOV     A,R2
   \   00003C   45..         ORL     A,?V0 + 3
   \   00003E   7003         JNZ     $+5
   \   000040   02....       LJMP    ??SerialApp_ProcessEvent_5 & 0xFFFF
   \   000043   8A82         MOV     DPL,R2
   \   000045   8B83         MOV     DPH,R3
   \   000047   E0           MOVX    A,@DPTR
   \   000048   24E6         ADD     A,#-0x1a
   \   00004A   60D9         JZ      ??SerialApp_ProcessEvent_3
   \   00004C   245A         ADD     A,#0x5a
   \   00004E   7003         JNZ     $+5
   \   000050   02....       LJMP    ??SerialApp_ProcessEvent_6 & 0xFFFF
   \   000053   24ED         ADD     A,#-0x13
   \   000055   70D1         JNZ     ??SerialApp_ProcessEvent_4
   \   000057   EA           MOV     A,R2
   \   000058   240C         ADD     A,#0xc
   \   00005A   F582         MOV     DPL,A
   \   00005C   EB           MOV     A,R3
   \   00005D   3400         ADDC    A,#0x0
   \   00005F   F583         MOV     DPH,A
   \   000061   E0           MOVX    A,@DPTR
   \   000062   F5..         MOV     ?V0 + 4,A
   \   000064   A3           INC     DPTR
   \   000065   E0           MOVX    A,@DPTR
   \   000066   F5..         MOV     ?V0 + 5,A
   \   000068   78..         MOV     R0,#?V0 + 4
   \   00006A   12....       LCALL   ?US_SWITCH_SPARSE
   \                     `?<Jumptable for SerialApp_ProcessEvent>_0`:
   \   00006D   0000         DW        0
   \   00006F   0200         DW        2
   \   000071   0680         DW        32774
   \   000073   ....         DW        ??SerialApp_ProcessEvent_7
   \   000075   2080         DW        32800
   \   000077   ....         DW        ??SerialApp_ProcessEvent_8
   \   000079   ....         DW        ??SerialApp_ProcessEvent_4
   \                     ??SerialApp_ProcessEvent_7:
   \   00007B                ; Setup parameters for call to function ZDO_ParseEPListRsp
   \   00007B   12....       LCALL   ??ZDO_ParseEPListRsp?relay
   \   00007E   8A..         MOV     ?V0 + 4,R2
   \   000080   8B..         MOV     ?V0 + 5,R3
   \   000082   AE..         MOV     R6,?V0 + 4
   \   000084   AF..         MOV     R7,?V0 + 5
   \   000086   EE           MOV     A,R6
   \   000087   4F           ORL     A,R7
   \   000088   609E         JZ      ??SerialApp_ProcessEvent_4
   \   00008A   8E82         MOV     DPL,R6
   \   00008C   8F83         MOV     DPH,R7
   \   00008E   E0           MOVX    A,@DPTR
   \   00008F   7032         JNZ     ??SerialApp_ProcessEvent_9
   \   000091   A3           INC     DPTR
   \   000092   A3           INC     DPTR
   \   000093   A3           INC     DPTR
   \   000094   E0           MOVX    A,@DPTR
   \   000095   602C         JZ      ??SerialApp_ProcessEvent_9
   \   000097   90....       MOV     DPTR,#SerialApp_TxAddr + 8
   \   00009A   7402         MOV     A,#0x2
   \   00009C   F0           MOVX    @DPTR,A
   \   00009D   8E82         MOV     DPL,R6
   \   00009F   8F83         MOV     DPH,R7
   \   0000A1   A3           INC     DPTR
   \   0000A2   E0           MOVX    A,@DPTR
   \   0000A3   F8           MOV     R0,A
   \   0000A4   A3           INC     DPTR
   \   0000A5   E0           MOVX    A,@DPTR
   \   0000A6   F9           MOV     R1,A
   \   0000A7   90....       MOV     DPTR,#SerialApp_TxAddr
   \   0000AA   E8           MOV     A,R0
   \   0000AB   F0           MOVX    @DPTR,A
   \   0000AC   A3           INC     DPTR
   \   0000AD   E9           MOV     A,R1
   \   0000AE   F0           MOVX    @DPTR,A
   \   0000AF   8E82         MOV     DPL,R6
   \   0000B1   8F83         MOV     DPH,R7
   \   0000B3   A3           INC     DPTR
   \   0000B4   A3           INC     DPTR
   \   0000B5   A3           INC     DPTR
   \   0000B6   A3           INC     DPTR
   \   0000B7   E0           MOVX    A,@DPTR
   \   0000B8   90....       MOV     DPTR,#SerialApp_TxAddr + 9
   \   0000BB   F0           MOVX    @DPTR,A
   \   0000BC                ; Setup parameters for call to function HalLedSet
   \   0000BC   7A01         MOV     R2,#0x1
   \   0000BE   7908         MOV     R1,#0x8
   \   0000C0   12....       LCALL   ??HalLedSet?relay
   \                     ??SerialApp_ProcessEvent_9:
   \   0000C3                ; Setup parameters for call to function osal_mem_free
   \   0000C3   EE           MOV     A,R6
   \   0000C4   FA           MOV     R2,A
   \   0000C5   EF           MOV     A,R7
   \   0000C6   FB           MOV     R3,A
   \   0000C7   12....       LCALL   ??osal_mem_free?relay
   \   0000CA   02....       LJMP    ??SerialApp_ProcessEvent_4 & 0xFFFF
   \                     ??SerialApp_ProcessEvent_8:
   \   0000CD   EA           MOV     A,R2
   \   0000CE   2413         ADD     A,#0x13
   \   0000D0   F582         MOV     DPL,A
   \   0000D2   EB           MOV     A,R3
   \   0000D3   12....       LCALL   ??Subroutine7_0 & 0xFFFF
   \                     ??CrossCallReturnLabel_9:
   \   0000D6   700A         JNZ     ??SerialApp_ProcessEvent_10
   \   0000D8                ; Setup parameters for call to function HalLedSet
   \   0000D8   7A01         MOV     R2,#0x1
   \                     ??SerialApp_ProcessEvent_11:
   \   0000DA   7908         MOV     R1,#0x8
   \   0000DC   12....       LCALL   ??HalLedSet?relay
   \   0000DF   02....       LJMP    ??SerialApp_ProcessEvent_4 & 0xFFFF
   \                     ??SerialApp_ProcessEvent_10:
   \   0000E2                ; Setup parameters for call to function HalLedSet
   \   0000E2   7A04         MOV     R2,#0x4
   \   0000E4   80F4         SJMP    ??SerialApp_ProcessEvent_11
   \                     ??SerialApp_ProcessEvent_6:
   \   0000E6   A3           INC     DPTR
   \   0000E7   A3           INC     DPTR
   \   0000E8   A3           INC     DPTR
   \   0000E9   E0           MOVX    A,@DPTR
   \   0000EA   FF           MOV     R7,A
   \   0000EB   8A82         MOV     DPL,R2
   \   0000ED   8B83         MOV     DPH,R3
   \   0000EF   A3           INC     DPTR
   \   0000F0   A3           INC     DPTR
   \   0000F1   E0           MOVX    A,@DPTR
   \   0000F2   6003         JZ      $+5
   \   0000F4   02....       LJMP    ??SerialApp_ProcessEvent_4 & 0xFFFF
   \   0000F7   EF           MOV     A,R7
   \   0000F8   A2E1         MOV     C,0xE0 /* A   */.1
   \   0000FA   505C         JNC     ??SerialApp_ProcessEvent_12
   \   0000FC                ; Setup parameters for call to function HalLedSet
   \   0000FC   7A00         MOV     R2,#0x0
   \   0000FE   7908         MOV     R1,#0x8
   \   000100   12....       LCALL   ??HalLedSet?relay
   \   000103   7408         MOV     A,#0x8
   \   000105   12....       LCALL   ?XSTACK_DISP0_8
   \   000108   7402         MOV     A,#0x2
   \   00010A   12....       LCALL   ?Subroutine3 & 0xFFFF
   \                     ??CrossCallReturnLabel_3:
   \   00010D   E4           CLR     A
   \   00010E   12....       LCALL   ?Subroutine4 & 0xFFFF
   \                     ??CrossCallReturnLabel_5:
   \   000111                ; Setup parameters for call to function ZDP_EndDeviceBindReq
   \   000111   F5..         MOV     ?V0 + 6,A
   \   000113   78..         MOV     R0,#?V0 + 6
   \   000115   12....       LCALL   ?PUSH_XSTACK_I_ONE
   \   000118   78..         MOV     R0,#?V0 + 4
   \   00011A   12....       LCALL   ?PUSH_XSTACK_I_TWO
   \   00011D   75..02       MOV     ?V0 + 6,#0x2
   \   000120   78..         MOV     R0,#?V0 + 6
   \   000122   12....       LCALL   ?PUSH_XSTACK_I_ONE
   \   000125   78..         MOV     R0,#?V0 + 4
   \   000127   12....       LCALL   ?PUSH_XSTACK_I_TWO
   \   00012A   75..02       MOV     ?V0 + 4,#0x2
   \   00012D   78..         MOV     R0,#?V0 + 4
   \   00012F   12....       LCALL   ?PUSH_XSTACK_I_ONE
   \   000132   75..05       MOV     ?V0 + 4,#0x5
   \   000135   75..0F       MOV     ?V0 + 5,#0xf
   \   000138   78..         MOV     R0,#?V0 + 4
   \   00013A   12....       LCALL   ?PUSH_XSTACK_I_TWO
   \   00013D                ; Setup parameters for call to function NLME_GetShortAddr
   \   00013D   12....       LCALL   ??NLME_GetShortAddr?relay
   \   000140   EA           MOV     A,R2
   \   000141   FC           MOV     R4,A
   \   000142   EB           MOV     A,R3
   \   000143   FD           MOV     R5,A
   \   000144   740B         MOV     A,#0xb
   \   000146   F9           MOV     R1,A
   \   000147   7409         MOV     A,#0x9
   \   000149   12....       LCALL   ?XSTACK_DISP0_8
   \   00014C   AA82         MOV     R2,DPL
   \   00014E   AB83         MOV     R3,DPH
   \   000150   12....       LCALL   ??ZDP_EndDeviceBindReq?relay
   \   000153   7409         MOV     A,#0x9
   \   000155   12....       LCALL   ?DEALLOC_XSTACK8
   \                     ??SerialApp_ProcessEvent_12:
   \   000158   EF           MOV     A,R7
   \   000159   A2E3         MOV     C,0xE0 /* A   */.3
   \   00015B   4003         JC      $+5
   \   00015D   02....       LJMP    ??SerialApp_ProcessEvent_4 & 0xFFFF
   \   000160                ; Setup parameters for call to function HalLedSet
   \   000160   7A00         MOV     R2,#0x0
   \   000162   7908         MOV     R1,#0x8
   \   000164   12....       LCALL   ??HalLedSet?relay
   \   000167   7408         MOV     A,#0x8
   \   000169   12....       LCALL   ?XSTACK_DISP0_8
   \   00016C   740F         MOV     A,#0xf
   \   00016E   12....       LCALL   ?Subroutine3 & 0xFFFF
   \                     ??CrossCallReturnLabel_4:
   \   000171   74FF         MOV     A,#-0x1
   \   000173   12....       LCALL   ?Subroutine4 & 0xFFFF
   \                     ??CrossCallReturnLabel_6:
   \   000176                ; Setup parameters for call to function ZDP_MatchDescReq
   \   000176   75..00       MOV     ?V0 + 6,#0x0
   \   000179   78..         MOV     R0,#?V0 + 6
   \   00017B   12....       LCALL   ?PUSH_XSTACK_I_ONE
   \   00017E   78..         MOV     R0,#?V0 + 4
   \   000180   12....       LCALL   ?PUSH_XSTACK_I_TWO
   \   000183   75..02       MOV     ?V0 + 6,#0x2
   \   000186   78..         MOV     R0,#?V0 + 6
   \   000188   12....       LCALL   ?PUSH_XSTACK_I_ONE
   \   00018B   78..         MOV     R0,#?V0 + 4
   \   00018D   12....       LCALL   ?PUSH_XSTACK_I_TWO
   \   000190   75..05       MOV     ?V0 + 4,#0x5
   \   000193   75..0F       MOV     ?V0 + 5,#0xf
   \   000196   78..         MOV     R0,#?V0 + 4
   \   000198   12....       LCALL   ?PUSH_XSTACK_I_TWO
   \   00019B   7902         MOV     R1,#0x2
   \   00019D   7CFF         MOV     R4,#-0x1
   \   00019F   7DFF         MOV     R5,#-0x1
   \   0001A1   7408         MOV     A,#0x8
   \   0001A3   12....       LCALL   ?XSTACK_DISP0_8
   \   0001A6   AA82         MOV     R2,DPL
   \   0001A8   AB83         MOV     R3,DPH
   \   0001AA   12....       LCALL   ??ZDP_MatchDescReq?relay
   \   0001AD   7408         MOV     A,#0x8
   \   0001AF   12....       LCALL   ?DEALLOC_XSTACK8
   \   0001B2   02....       LJMP    ??SerialApp_ProcessEvent_4 & 0xFFFF
   \                     ??SerialApp_ProcessEvent_5:
   \   0001B5   AA..         MOV     R2,?V0 + 0
   \   0001B7   E5..         MOV     A,?V0 + 1
   \   0001B9   6480         XRL     A,#0x80
   \   0001BB   FB           MOV     R3,A
   \   0001BC   8063         SJMP    ??SerialApp_ProcessEvent_13
    285          
    286            if ( events & SERIALAPP_RESP_EVT )
   \                     ??SerialApp_ProcessEvent_1:
   \   0001BE   5402         ANL     A,#0x2
   \   0001C0   605B         JZ      ??SerialApp_ProcessEvent_14
    287            {
    288              SerialApp_Resp();
   \   0001C2                ; Setup parameters for call to function AF_DataRequest
   \   0001C2   75..1E       MOV     ?V0 + 2,#0x1e
   \   0001C5   78..         MOV     R0,#?V0 + 2
   \   0001C7   12....       LCALL   ?PUSH_XSTACK_I_ONE
   \   0001CA   75....       MOV     ?V0 + 2,#SerialApp_MsgID & 0xff
   \   0001CD   75....       MOV     ?V0 + 3,#(SerialApp_MsgID >> 8) & 0xff
   \   0001D0   78..         MOV     R0,#?V0 + 2
   \   0001D2   12....       LCALL   ?PUSH_XSTACK_I_TWO
   \   0001D5   75....       MOV     ?V0 + 2,#SerialApp_RspBuf & 0xff
   \   0001D8   75....       MOV     ?V0 + 3,#(SerialApp_RspBuf >> 8) & 0xff
   \   0001DB   78..         MOV     R0,#?V0 + 2
   \   0001DD   12....       LCALL   ?PUSH_XSTACK_I_TWO
   \   0001E0   75..04       MOV     ?V0 + 2,#0x4
   \   0001E3   75..00       MOV     ?V0 + 3,#0x0
   \   0001E6   78..         MOV     R0,#?V0 + 2
   \   0001E8   12....       LCALL   ?PUSH_XSTACK_I_TWO
   \   0001EB   75..02       MOV     ?V0 + 2,#0x2
   \   0001EE   78..         MOV     R0,#?V0 + 2
   \   0001F0   12....       LCALL   ?PUSH_XSTACK_I_TWO
   \   0001F3   7900         MOV     R1,#0x0
   \   0001F5   7C..         MOV     R4,#SerialApp_epDesc & 0xff
   \   0001F7   7D..         MOV     R5,#(SerialApp_epDesc >> 8) & 0xff
   \   0001F9   7A..         MOV     R2,#SerialApp_RxAddr & 0xff
   \   0001FB   7B..         MOV     R3,#(SerialApp_RxAddr >> 8) & 0xff
   \   0001FD   12....       LCALL   ??AF_DataRequest?relay
   \   000200   7409         MOV     A,#0x9
   \   000202   12....       LCALL   ?DEALLOC_XSTACK8
   \   000205   E9           MOV     A,R1
   \   000206   600C         JZ      ??SerialApp_ProcessEvent_15
   \   000208                ; Setup parameters for call to function osal_set_event
   \   000208   7A02         MOV     R2,#0x2
   \   00020A   7B00         MOV     R3,#0x0
   \   00020C   90....       MOV     DPTR,#SerialApp_TaskID
   \   00020F   E0           MOVX    A,@DPTR
   \   000210   F9           MOV     R1,A
   \   000211   12....       LCALL   ??osal_set_event?relay
    289              return ( events ^ SERIALAPP_RESP_EVT );
   \                     ??SerialApp_ProcessEvent_15:
   \   000214   E5..         MOV     A,?V0 + 0
   \   000216   6402         XRL     A,#0x2
   \                     ??SerialApp_ProcessEvent_2:
   \   000218   FA           MOV     R2,A
   \   000219   AB..         MOV     R3,?V0 + 1
   \   00021B   8004         SJMP    ??SerialApp_ProcessEvent_13
    290            }
    291          
    292            return ( 0 );  // Discard unknown events.
   \                     ??SerialApp_ProcessEvent_14:
   \   00021D   7A00         MOV     R2,#0x0
   \   00021F   7B00         MOV     R3,#0x0
   \                     ??SerialApp_ProcessEvent_13:
   \   000221   7409         MOV     A,#0x9
   \   000223   12....       LCALL   ?DEALLOC_XSTACK8
   \   000226   7F07         MOV     R7,#0x7
   \   000228   02....       LJMP    ?BANKED_LEAVE_XDATA
    293          }

   \                                 In  segment BANKED_CODE, align 1, keep-with-next
   \                     ?Subroutine4:
   \   000000   F0           MOVX    @DPTR,A
   \   000001   A3           INC     DPTR
   \   000002   F0           MOVX    @DPTR,A
   \   000003   75....       MOV     ?V0 + 4,#SerialApp_ClusterList & 0xff
   \   000006   75....       MOV     ?V0 + 5,#(SerialApp_ClusterList >> 8) & 0xff
   \   000009   22           RET

   \                                 In  segment BANKED_CODE, align 1, keep-with-next
   \                     ??Subroutine7_0:
   \   000000   12....       LCALL   ?Subroutine6 & 0xFFFF
   \                     ??CrossCallReturnLabel_13:
   \   000003   E0           MOVX    A,@DPTR
   \   000004   22           RET

   \                                 In  segment BANKED_CODE, align 1, keep-with-next
   \                     ?Subroutine6:
   \   000000   3400         ADDC    A,#0x0
   \   000002   F583         MOV     DPH,A
   \   000004   E0           MOVX    A,@DPTR
   \   000005   F8           MOV     R0,A
   \   000006   A3           INC     DPTR
   \   000007   E0           MOVX    A,@DPTR
   \   000008   F583         MOV     DPH,A
   \   00000A   8882         MOV     DPL,R0
   \   00000C   22           RET
    294          
    295          /*********************************************************************
    296           * @fn      SerialApp_ProcessZDOMsgs()
    297           *
    298           * @brief   Process response messages
    299           *
    300           * @param   none
    301           *
    302           * @return  none
    303           */
    304          static void SerialApp_ProcessZDOMsgs( zdoIncomingMsg_t *inMsg )
    305          {
    306            switch ( inMsg->clusterID )
    307            {
    308              case End_Device_Bind_rsp:
    309                if ( ZDO_ParseBindRsp( inMsg ) == ZSuccess )
    310                {
    311                  // Light LED
    312                  HalLedSet( HAL_LED_4, HAL_LED_MODE_ON );
    313                }
    314          #if defined(BLINK_LEDS)
    315                else
    316                {
    317                  // Flash LED to show failure
    318                  HalLedSet ( HAL_LED_4, HAL_LED_MODE_FLASH );
    319                }
    320          #endif
    321                break;
    322                
    323              case Match_Desc_rsp:
    324                {
    325                  ZDO_ActiveEndpointRsp_t *pRsp = ZDO_ParseEPListRsp( inMsg );
    326                  if ( pRsp )
    327                  {
    328                    if ( pRsp->status == ZSuccess && pRsp->cnt )
    329                    {
    330                      SerialApp_TxAddr.addrMode = (afAddrMode_t)Addr16Bit;
    331                      SerialApp_TxAddr.addr.shortAddr = pRsp->nwkAddr;
    332                      // Take the first endpoint, Can be changed to search through endpoints
    333                      SerialApp_TxAddr.endPoint = pRsp->epList[0];
    334                      
    335                      // Light LED
    336                      HalLedSet( HAL_LED_4, HAL_LED_MODE_ON );
    337                    }
    338                    osal_mem_free( pRsp );
    339                  }
    340                }
    341                break;
    342            }
    343          }
    344          
    345          /*********************************************************************
    346           * @fn      SerialApp_HandleKeys
    347           *
    348           * @brief   Handles all key events for this device.
    349           *
    350           * @param   shift - true if in shift/alt.
    351           * @param   keys  - bit field for key events.
    352           *
    353           * @return  none
    354           */
    355          void SerialApp_HandleKeys( uint8 shift, uint8 keys )
    356          {
    357            zAddrType_t txAddr;
    358            
    359            if ( shift )
    360            {
    361              if ( keys & HAL_KEY_SW_1 )
    362              {
    363              }
    364              if ( keys & HAL_KEY_SW_2 )
    365              {
    366              }
    367              if ( keys & HAL_KEY_SW_3 )
    368              {
    369              }
    370              if ( keys & HAL_KEY_SW_4 )
    371              {
    372              }
    373            }
    374            else
    375            {
    376              if ( keys & HAL_KEY_SW_1 )
    377              {
    378              }
    379          
    380              if ( keys & HAL_KEY_SW_2 )
    381              {
    382                HalLedSet ( HAL_LED_4, HAL_LED_MODE_OFF );
    383                
    384                // Initiate an End Device Bind Request for the mandatory endpoint
    385                txAddr.addrMode = Addr16Bit;
    386                txAddr.addr.shortAddr = 0x0000; // Coordinator
    387                ZDP_EndDeviceBindReq( &txAddr, NLME_GetShortAddr(), 
    388                                      SerialApp_epDesc.endPoint,
    389                                      SERIALAPP_PROFID,
    390                                      SERIALAPP_MAX_CLUSTERS, (cId_t *)SerialApp_ClusterList,
    391                                      SERIALAPP_MAX_CLUSTERS, (cId_t *)SerialApp_ClusterList,
    392                                      FALSE );
    393              }
    394          
    395              if ( keys & HAL_KEY_SW_3 )
    396              {
    397              }
    398          
    399              if ( keys & HAL_KEY_SW_4 )
    400              {
    401                HalLedSet ( HAL_LED_4, HAL_LED_MODE_OFF );
    402                
    403                // Initiate a Match Description Request (Service Discovery)
    404                txAddr.addrMode = AddrBroadcast;
    405                txAddr.addr.shortAddr = NWK_BROADCAST_SHORTADDR;
    406                ZDP_MatchDescReq( &txAddr, NWK_BROADCAST_SHORTADDR,
    407                                  SERIALAPP_PROFID,
    408                                  SERIALAPP_MAX_CLUSTERS, (cId_t *)SerialApp_ClusterList,
    409                                  SERIALAPP_MAX_CLUSTERS, (cId_t *)SerialApp_ClusterList,
    410                                  FALSE );
    411              }
    412            }
    413          }
    414          
    415          /*********************************************************************
    416           * @fn      SerialApp_ProcessMSGCmd
    417           *
    418           * @brief   Data message processor callback. This function processes
    419           *          any incoming data - probably from other devices. Based
    420           *          on the cluster ID, perform the intended action.
    421           *
    422           * @param   pkt - pointer to the incoming message packet
    423           *
    424           * @return  TRUE if the 'pkt' parameter is being used and will be freed later,
    425           *          FALSE otherwise.
    426           */

   \                                 In  segment BANKED_CODE, align 1, keep-with-next
    427          void SerialApp_ProcessMSGCmd( afIncomingMSGPacket_t *pkt )
   \                     SerialApp_ProcessMSGCmd:
    428          {
   \   000000   74F4         MOV     A,#-0xc
   \   000002   12....       LCALL   ?BANKED_ENTER_XDATA
   \   000005                ; Saved register size: 12
   \   000005                ; Auto size: 0
   \   000005   EA           MOV     A,R2
   \   000006   FE           MOV     R6,A
   \   000007   EB           MOV     A,R3
   \   000008   FF           MOV     R7,A
    429            uint8 stat;
    430            uint8 seqnb;
    431            uint8 delay;
    432          
    433            switch ( pkt->clusterId )
   \   000009   8E82         MOV     DPL,R6
   \   00000B   8F83         MOV     DPH,R7
   \   00000D   A3           INC     DPTR
   \   00000E   A3           INC     DPTR
   \   00000F   A3           INC     DPTR
   \   000010   A3           INC     DPTR
   \   000011   E0           MOVX    A,@DPTR
   \   000012   F5..         MOV     ?V0 + 0,A
   \   000014   A3           INC     DPTR
   \   000015   E0           MOVX    A,@DPTR
   \   000016   F5..         MOV     ?V0 + 1,A
   \   000018   78..         MOV     R0,#?V0 + 0
   \   00001A   12....       LCALL   ?US_SWITCH_DENSE
   \                     `?<Jumptable for SerialApp_ProcessMSGCmd>_0`:
   \   00001D   0100         DW        1
   \   00001F   01           DB        1
   \   000020   ....         DW        ??SerialApp_ProcessMSGCmd_0
   \   000022   ....         DW        ??SerialApp_ProcessMSGCmd_1
   \   000024   ....         DW        ??SerialApp_ProcessMSGCmd_2
    434            {
    435            // A message with a serial data block to be transmitted on the serial port.
    436            case SERIALAPP_CLUSTERID1:
    437              // Store the address for sending and retrying.
    438              osal_memcpy(&SerialApp_RxAddr, &(pkt->srcAddr), sizeof( afAddrType_t ));
   \                     ??SerialApp_ProcessMSGCmd_1:
   \   000026                ; Setup parameters for call to function osal_memcpy
   \   000026   EE           MOV     A,R6
   \   000027   2406         ADD     A,#0x6
   \   000029   F5..         MOV     ?V0 + 0,A
   \   00002B   EF           MOV     A,R7
   \   00002C   3400         ADDC    A,#0x0
   \   00002E   F5..         MOV     ?V0 + 1,A
   \   000030   75..00       MOV     ?V0 + 2,#0x0
   \   000033   78..         MOV     R0,#?V0 + 0
   \   000035   12....       LCALL   ?PUSH_XSTACK_I_THREE
   \   000038   7C0C         MOV     R4,#0xc
   \   00003A   7D00         MOV     R5,#0x0
   \   00003C   7A..         MOV     R2,#SerialApp_RxAddr & 0xff
   \   00003E   7B..         MOV     R3,#(SerialApp_RxAddr >> 8) & 0xff
   \   000040   12....       LCALL   ??osal_memcpy?relay
   \   000043   7403         MOV     A,#0x3
   \   000045   12....       LCALL   ?DEALLOC_XSTACK8
    439          
    440              seqnb = pkt->cmd.Data[0];
   \   000048   12....       LCALL   ?Subroutine1 & 0xFFFF
   \                     ??CrossCallReturnLabel_10:
   \   00004B   F5..         MOV     ?V0 + 0,A
    441          
    442              // Keep message if not a repeat packet
    443              if ( (seqnb > SerialApp_RxSeq) ||                    // Normal
    444                  ((seqnb < 0x80 ) && ( SerialApp_RxSeq > 0x80)) ) // Wrap-around
   \   00004D   90....       MOV     DPTR,#SerialApp_RxSeq
   \   000050   E0           MOVX    A,@DPTR
   \   000051   C3           CLR     C
   \   000052   95..         SUBB    A,?V0 + 0
   \   000054   400D         JC      ??SerialApp_ProcessMSGCmd_3
   \   000056   E5..         MOV     A,?V0 + 0
   \   000058   C3           CLR     C
   \   000059   9480         SUBB    A,#-0x80
   \   00005B   5040         JNC     ??SerialApp_ProcessMSGCmd_4
   \   00005D   E0           MOVX    A,@DPTR
   \   00005E   C3           CLR     C
   \   00005F   9481         SUBB    A,#-0x7f
   \   000061   403A         JC      ??SerialApp_ProcessMSGCmd_4
    445              {
    446                // Transmit the data on the serial port.
    447                if ( HalUARTWrite( SERIAL_APP_PORT, pkt->cmd.Data+1, (pkt->cmd.DataLength-1) ) )
   \                     ??SerialApp_ProcessMSGCmd_3:
   \   000063                ; Setup parameters for call to function HalUARTWrite
   \   000063   EE           MOV     A,R6
   \   000064   2420         ADD     A,#0x20
   \   000066   F582         MOV     DPL,A
   \   000068   EF           MOV     A,R7
   \   000069   3400         ADDC    A,#0x0
   \   00006B   F583         MOV     DPH,A
   \   00006D   E0           MOVX    A,@DPTR
   \   00006E   24FF         ADD     A,#-0x1
   \   000070   FC           MOV     R4,A
   \   000071   A3           INC     DPTR
   \   000072   E0           MOVX    A,@DPTR
   \   000073   34FF         ADDC    A,#-0x1
   \   000075   FD           MOV     R5,A
   \   000076   12....       LCALL   ?Subroutine5 & 0xFFFF
   \                     ??CrossCallReturnLabel_7:
   \   000079   E0           MOVX    A,@DPTR
   \   00007A   2401         ADD     A,#0x1
   \   00007C   FA           MOV     R2,A
   \   00007D   A3           INC     DPTR
   \   00007E   E0           MOVX    A,@DPTR
   \   00007F   3400         ADDC    A,#0x0
   \   000081   FB           MOV     R3,A
   \   000082   7900         MOV     R1,#0x0
   \   000084   12....       LCALL   ??HalUARTWrite?relay
   \   000087   8B..         MOV     ?V0 + 3,R3
   \   000089   EA           MOV     A,R2
   \   00008A   45..         ORL     A,?V0 + 3
   \   00008C   6009         JZ      ??SerialApp_ProcessMSGCmd_5
    448                {
    449                  // Save for next incoming message
    450                  SerialApp_RxSeq = seqnb;
   \   00008E   E5..         MOV     A,?V0 + 0
   \   000090   90....       MOV     DPTR,#SerialApp_RxSeq
   \   000093   F0           MOVX    @DPTR,A
    451                  stat = OTA_SUCCESS;
   \   000094   E4           CLR     A
   \   000095   8008         SJMP    ??SerialApp_ProcessMSGCmd_6
    452                }
    453                else
    454                {
    455                  stat = OTA_SER_BUSY;
   \                     ??SerialApp_ProcessMSGCmd_5:
   \   000097   7402         MOV     A,#0x2
   \   000099   7810         MOV     R0,#0x10
   \   00009B   8004         SJMP    ??SerialApp_ProcessMSGCmd_7
    456                }
    457              }
    458              else
    459              {
    460                stat = OTA_DUP_MSG;
   \                     ??SerialApp_ProcessMSGCmd_4:
   \   00009D   7401         MOV     A,#0x1
   \                     ??SerialApp_ProcessMSGCmd_6:
   \   00009F   7801         MOV     R0,#0x1
    461              }
    462          
    463              // Select approproiate OTA flow-control delay.
    464              delay = (stat == OTA_SER_BUSY) ? SERIALAPP_NAK_DELAY : SERIALAPP_ACK_DELAY;
    465          
    466              // Build & send OTA response message.
    467              SerialApp_RspBuf[0] = stat;
   \                     ??SerialApp_ProcessMSGCmd_7:
   \   0000A1   90....       MOV     DPTR,#SerialApp_RspBuf
   \   0000A4   F0           MOVX    @DPTR,A
    468              SerialApp_RspBuf[1] = seqnb;
   \   0000A5   E5..         MOV     A,?V0 + 0
   \   0000A7   A3           INC     DPTR
   \   0000A8   F0           MOVX    @DPTR,A
    469              SerialApp_RspBuf[2] = LO_UINT16( delay );
   \   0000A9   E8           MOV     A,R0
   \   0000AA   A3           INC     DPTR
   \   0000AB   F0           MOVX    @DPTR,A
    470              SerialApp_RspBuf[3] = HI_UINT16( delay );
   \   0000AC   A3           INC     DPTR
   \   0000AD   E4           CLR     A
   \   0000AE   F0           MOVX    @DPTR,A
    471              osal_set_event( SerialApp_TaskID, SERIALAPP_RESP_EVT );
   \   0000AF                ; Setup parameters for call to function osal_set_event
   \   0000AF   7A02         MOV     R2,#0x2
   \   0000B1   FB           MOV     R3,A
   \   0000B2   90....       MOV     DPTR,#SerialApp_TaskID
   \   0000B5   E0           MOVX    A,@DPTR
   \   0000B6   F9           MOV     R1,A
   \   0000B7   12....       LCALL   ??osal_set_event?relay
    472              osal_stop_timerEx(SerialApp_TaskID, SERIALAPP_RESP_EVT);
   \   0000BA                ; Setup parameters for call to function osal_stop_timerEx
   \   0000BA   7A02         MOV     R2,#0x2
   \   0000BC   7B00         MOV     R3,#0x0
   \   0000BE   8027         SJMP    ??SerialApp_ProcessMSGCmd_8
    473              break;
    474          
    475            // A response to a received serial data block.
    476            case SERIALAPP_CLUSTERID2:
    477              if ((pkt->cmd.Data[1] == SerialApp_TxSeq) &&
    478                 ((pkt->cmd.Data[0] == OTA_SUCCESS) || (pkt->cmd.Data[0] == OTA_DUP_MSG)))
   \                     ??SerialApp_ProcessMSGCmd_2:
   \   0000C0   12....       LCALL   ?Subroutine2 & 0xFFFF
   \                     ??CrossCallReturnLabel_0:
   \   0000C3   E0           MOVX    A,@DPTR
   \   0000C4   F8           MOV     R0,A
   \   0000C5   90....       MOV     DPTR,#SerialApp_TxSeq
   \   0000C8   E0           MOVX    A,@DPTR
   \   0000C9   68           XRL     A,R0
   \   0000CA   7025         JNZ     ??SerialApp_ProcessMSGCmd_9
   \   0000CC   12....       LCALL   ?Subroutine1 & 0xFFFF
   \                     ??CrossCallReturnLabel_11:
   \   0000CF   600E         JZ      ??SerialApp_ProcessMSGCmd_10
   \   0000D1   12....       LCALL   ?Subroutine5 & 0xFFFF
   \                     ??CrossCallReturnLabel_8:
   \   0000D4   A3           INC     DPTR
   \   0000D5   E0           MOVX    A,@DPTR
   \   0000D6   F583         MOV     DPH,A
   \   0000D8   8882         MOV     DPL,R0
   \   0000DA   E0           MOVX    A,@DPTR
   \   0000DB   6401         XRL     A,#0x1
   \   0000DD   7012         JNZ     ??SerialApp_ProcessMSGCmd_9
    479              {
    480                SerialApp_TxLen = 0;
   \                     ??SerialApp_ProcessMSGCmd_10:
   \   0000DF   90....       MOV     DPTR,#SerialApp_TxLen
   \   0000E2   E4           CLR     A
   \   0000E3   F0           MOVX    @DPTR,A
    481                osal_stop_timerEx(SerialApp_TaskID, SERIALAPP_SEND_EVT);
   \   0000E4                ; Setup parameters for call to function osal_stop_timerEx
   \   0000E4   7A01         MOV     R2,#0x1
   \   0000E6   FB           MOV     R3,A
   \                     ??SerialApp_ProcessMSGCmd_8:
   \   0000E7   90....       MOV     DPTR,#SerialApp_TaskID
   \   0000EA   E0           MOVX    A,@DPTR
   \   0000EB   F9           MOV     R1,A
   \   0000EC   12....       LCALL   ??osal_stop_timerEx?relay
   \   0000EF   8014         SJMP    ??SerialApp_ProcessMSGCmd_0
    482              }
    483              else
    484              {
    485                // Re-start timeout according to delay sent from other device.
    486                delay = BUILD_UINT16( pkt->cmd.Data[2], pkt->cmd.Data[3] );
    487                osal_start_timerEx( SerialApp_TaskID, SERIALAPP_SEND_EVT, delay );
   \                     ??SerialApp_ProcessMSGCmd_9:
   \   0000F1                ; Setup parameters for call to function osal_start_timerEx
   \   0000F1   12....       LCALL   ?Subroutine2 & 0xFFFF
    488              }
    489              break;
    490          
    491              default:
    492                break;
    493            }
   \                     ??CrossCallReturnLabel_1:
   \   0000F4   A3           INC     DPTR
   \   0000F5   E0           MOVX    A,@DPTR
   \   0000F6   FC           MOV     R4,A
   \   0000F7   7D00         MOV     R5,#0x0
   \   0000F9   7A01         MOV     R2,#0x1
   \   0000FB   7B00         MOV     R3,#0x0
   \   0000FD   90....       MOV     DPTR,#SerialApp_TaskID
   \   000100   E0           MOVX    A,@DPTR
   \   000101   F9           MOV     R1,A
   \   000102   12....       LCALL   ??osal_start_timerEx?relay
    494          }
   \                     ??SerialApp_ProcessMSGCmd_0:
   \   000105   7F04         MOV     R7,#0x4
   \   000107   02....       LJMP    ?BANKED_LEAVE_XDATA

   \                                 In  segment BANKED_CODE, align 1, keep-with-next
   \                     ?Subroutine5:
   \   000000   EE           MOV     A,R6
   \   000001   2422         ADD     A,#0x22
   \   000003   F582         MOV     DPL,A
   \   000005   EF           MOV     A,R7
   \   000006   3400         ADDC    A,#0x0
   \   000008   F583         MOV     DPH,A
   \   00000A   22           RET

   \                                 In  segment BANKED_CODE, align 1, keep-with-next
   \                     ?Subroutine2:
   \   000000   EE           MOV     A,R6
   \   000001   2422         ADD     A,#0x22
   \   000003   F582         MOV     DPL,A
   \   000005   EF           MOV     A,R7
   \   000006   12....       LCALL   ?Subroutine6 & 0xFFFF
   \                     ??CrossCallReturnLabel_12:
   \   000009   A3           INC     DPTR
   \   00000A   22           RET

   \                                 In  segment BANKED_CODE, align 1, keep-with-next
   \                     ?Subroutine1:
   \   000000   EE           MOV     A,R6
   \   000001   2422         ADD     A,#0x22
   \   000003   F582         MOV     DPL,A
   \   000005   EF           MOV     A,R7
   \   000006                REQUIRE ??Subroutine7_0
   \   000006                ; // Fall through to label ??Subroutine7_0
    495          
    496          /*********************************************************************
    497           * @fn      SerialApp_Send
    498           *
    499           * @brief   Send data OTA.
    500           *
    501           * @param   none
    502           *
    503           * @return  none
    504           */

   \                                 In  segment BANKED_CODE, align 1, keep-with-next
    505          static void SerialApp_Send(void)
   \                     SerialApp_Send:
    506          {
   \   000000   74F6         MOV     A,#-0xa
   \   000002   12....       LCALL   ?BANKED_ENTER_XDATA
   \   000005                ; Saved register size: 10
   \   000005                ; Auto size: 0
    507          #if SERIAL_APP_LOOPBACK
    508            if (SerialApp_TxLen < SERIAL_APP_TX_MAX)
    509            {
    510              SerialApp_TxLen += HalUARTRead(SERIAL_APP_PORT, SerialApp_TxBuf+SerialApp_TxLen+1,
    511                                                              SERIAL_APP_TX_MAX-SerialApp_TxLen);
    512            }
    513          
    514            if (SerialApp_TxLen)
    515            {
    516              (void)SerialApp_TxAddr;
    517              if (HalUARTWrite(SERIAL_APP_PORT, SerialApp_TxBuf+1, SerialApp_TxLen))
    518              {
    519                SerialApp_TxLen = 0;
    520              }
    521              else
    522              {
    523                osal_set_event(SerialApp_TaskID, SERIALAPP_SEND_EVT);
    524              }
    525            }
    526          #else
    527            if (!SerialApp_TxLen && 
    528                (SerialApp_TxLen = HalUARTRead(SERIAL_APP_PORT, SerialApp_TxBuf+1, SERIAL_APP_TX_MAX)))
   \   000005   90....       MOV     DPTR,#SerialApp_TxLen
   \   000008   E0           MOVX    A,@DPTR
   \   000009   701E         JNZ     ??SerialApp_Send_0
   \   00000B                ; Setup parameters for call to function HalUARTRead
   \   00000B   7C50         MOV     R4,#0x50
   \   00000D   7D00         MOV     R5,#0x0
   \   00000F   7A..         MOV     R2,#(SerialApp_TxBuf + 1) & 0xff
   \   000011   7B..         MOV     R3,#((SerialApp_TxBuf + 1) >> 8) & 0xff
   \   000013   7900         MOV     R1,#0x0
   \   000015   12....       LCALL   ??HalUARTRead?relay
   \   000018   EA           MOV     A,R2
   \   000019   90....       MOV     DPTR,#SerialApp_TxLen
   \   00001C   F0           MOVX    @DPTR,A
   \   00001D   6066         JZ      ??SerialApp_Send_1
    529            {
    530              // Pre-pend sequence number to the Tx message.
    531              SerialApp_TxBuf[0] = ++SerialApp_TxSeq;
   \   00001F   90....       MOV     DPTR,#SerialApp_TxSeq
   \   000022   E0           MOVX    A,@DPTR
   \   000023   04           INC     A
   \   000024   F0           MOVX    @DPTR,A
   \   000025   90....       MOV     DPTR,#SerialApp_TxBuf
   \   000028   F0           MOVX    @DPTR,A
    532            }
    533          
    534            if (SerialApp_TxLen)
    535            {
    536              if (afStatus_SUCCESS != AF_DataRequest(&SerialApp_TxAddr,
    537                                                     (endPointDesc_t *)&SerialApp_epDesc,
    538                                                      SERIALAPP_CLUSTERID1,
    539                                                      SerialApp_TxLen+1, SerialApp_TxBuf,
    540                                                      &SerialApp_MsgID, 0, AF_DEFAULT_RADIUS))
   \                     ??SerialApp_Send_0:
   \   000029                ; Setup parameters for call to function AF_DataRequest
   \   000029   75..1E       MOV     ?V0 + 0,#0x1e
   \   00002C   78..         MOV     R0,#?V0 + 0
   \   00002E   12....       LCALL   ?PUSH_XSTACK_I_ONE
   \   000031   75....       MOV     ?V0 + 0,#SerialApp_MsgID & 0xff
   \   000034   75....       MOV     ?V0 + 1,#(SerialApp_MsgID >> 8) & 0xff
   \   000037   78..         MOV     R0,#?V0 + 0
   \   000039   12....       LCALL   ?PUSH_XSTACK_I_TWO
   \   00003C   75....       MOV     ?V0 + 0,#SerialApp_TxBuf & 0xff
   \   00003F   75....       MOV     ?V0 + 1,#(SerialApp_TxBuf >> 8) & 0xff
   \   000042   78..         MOV     R0,#?V0 + 0
   \   000044   12....       LCALL   ?PUSH_XSTACK_I_TWO
   \   000047   90....       MOV     DPTR,#SerialApp_TxLen
   \   00004A   E0           MOVX    A,@DPTR
   \   00004B   2401         ADD     A,#0x1
   \   00004D   F5..         MOV     ?V0 + 0,A
   \   00004F   E4           CLR     A
   \   000050   3400         ADDC    A,#0x0
   \   000052   F5..         MOV     ?V0 + 1,A
   \   000054   78..         MOV     R0,#?V0 + 0
   \   000056   12....       LCALL   ?PUSH_XSTACK_I_TWO
   \   000059   75..01       MOV     ?V0 + 0,#0x1
   \   00005C   75..00       MOV     ?V0 + 1,#0x0
   \   00005F   78..         MOV     R0,#?V0 + 0
   \   000061   12....       LCALL   ?PUSH_XSTACK_I_TWO
   \   000064   7900         MOV     R1,#0x0
   \   000066   7C..         MOV     R4,#SerialApp_epDesc & 0xff
   \   000068   7D..         MOV     R5,#(SerialApp_epDesc >> 8) & 0xff
   \   00006A   7A..         MOV     R2,#SerialApp_TxAddr & 0xff
   \   00006C   7B..         MOV     R3,#(SerialApp_TxAddr >> 8) & 0xff
   \   00006E   12....       LCALL   ??AF_DataRequest?relay
   \   000071   7409         MOV     A,#0x9
   \   000073   12....       LCALL   ?DEALLOC_XSTACK8
   \   000076   E9           MOV     A,R1
   \   000077   600C         JZ      ??SerialApp_Send_1
    541              {
    542                osal_set_event(SerialApp_TaskID, SERIALAPP_SEND_EVT);
   \   000079                ; Setup parameters for call to function osal_set_event
   \   000079   7A01         MOV     R2,#0x1
   \   00007B   7B00         MOV     R3,#0x0
   \   00007D   90....       MOV     DPTR,#SerialApp_TaskID
   \   000080   E0           MOVX    A,@DPTR
   \   000081   F9           MOV     R1,A
   \   000082   12....       LCALL   ??osal_set_event?relay
    543              }
    544            }
    545          #endif
    546          }
   \                     ??SerialApp_Send_1:
   \   000085   7F02         MOV     R7,#0x2
   \   000087   02....       LJMP    ?BANKED_LEAVE_XDATA
    547          
    548          /*********************************************************************
    549           * @fn      SerialApp_Resp
    550           *
    551           * @brief   Send data OTA.
    552           *
    553           * @param   none
    554           *
    555           * @return  none
    556           */
    557          static void SerialApp_Resp(void)
    558          {
    559            if (afStatus_SUCCESS != AF_DataRequest(&SerialApp_RxAddr,
    560                                                   (endPointDesc_t *)&SerialApp_epDesc,
    561                                                    SERIALAPP_CLUSTERID2,
    562                                                    SERIAL_APP_RSP_CNT, SerialApp_RspBuf,
    563                                                   &SerialApp_MsgID, 0, AF_DEFAULT_RADIUS))
    564            {
    565              osal_set_event(SerialApp_TaskID, SERIALAPP_RESP_EVT);
    566            }
    567          }
    568          
    569          /*********************************************************************
    570           * @fn      SerialApp_CallBack
    571           *
    572           * @brief   Send data OTA.
    573           *
    574           * @param   port - UART port.
    575           * @param   event - the UART port event flag.
    576           *
    577           * @return  none
    578           */

   \                                 In  segment BANKED_CODE, align 1, keep-with-next
    579          static void SerialApp_CallBack(uint8 port, uint8 event)
   \                     SerialApp_CallBack:
    580          {
   \   000000   74F7         MOV     A,#-0x9
   \   000002   12....       LCALL   ?BANKED_ENTER_XDATA
   \   000005                ; Saved register size: 9
   \   000005                ; Auto size: 0
   \   000005   EA           MOV     A,R2
   \   000006   FE           MOV     R6,A
    581            (void)port;
    582          
    583            if ((event & (HAL_UART_RX_FULL | HAL_UART_RX_ABOUT_FULL | HAL_UART_RX_TIMEOUT)) &&
    584          #if SERIAL_APP_LOOPBACK
    585                (SerialApp_TxLen < SERIAL_APP_TX_MAX))
    586          #else
    587                !SerialApp_TxLen)
   \   000007   7407         MOV     A,#0x7
   \   000009   5E           ANL     A,R6
   \   00000A   6009         JZ      ??SerialApp_CallBack_0
   \   00000C   90....       MOV     DPTR,#SerialApp_TxLen
   \   00000F   E0           MOVX    A,@DPTR
   \   000010   7003         JNZ     ??SerialApp_CallBack_0
    588          #endif
    589            {
    590              SerialApp_Send();
   \   000012                ; Setup parameters for call to function SerialApp_Send
   \   000012   12....       LCALL   ??SerialApp_Send?relay
    591            }
    592          }
   \                     ??SerialApp_CallBack_0:
   \   000015   02....       LJMP    ?Subroutine0 & 0xFFFF

   \                                 In  segment BANK_RELAYS, align 1
   \                     ??SerialApp_Init?relay:
   \   000000   12....       LCALL   ?BDISPATCH
   \   000003   ......       DC24    SerialApp_Init

   \                                 In  segment BANK_RELAYS, align 1
   \                     ??SerialApp_ProcessEvent?relay:
   \   000000   12....       LCALL   ?BDISPATCH
   \   000003   ......       DC24    SerialApp_ProcessEvent

   \                                 In  segment BANK_RELAYS, align 1
   \                     ??SerialApp_ProcessMSGCmd?relay:
   \   000000   12....       LCALL   ?BDISPATCH
   \   000003   ......       DC24    SerialApp_ProcessMSGCmd

   \                                 In  segment BANK_RELAYS, align 1
   \                     ??SerialApp_Send?relay:
   \   000000   12....       LCALL   ?BDISPATCH
   \   000003   ......       DC24    SerialApp_Send

   \                                 In  segment BANK_RELAYS, align 1
   \                     ??SerialApp_CallBack?relay:
   \   000000   12....       LCALL   ?BDISPATCH
   \   000003   ......       DC24    SerialApp_CallBack

   \                                 In  segment XDATA_ROM_C, align 1
   \                     `?<Constant "SerialApp">`:
   \   000000   53657269     DB "SerialApp"
   \            616C4170
   \            7000    
    593          
    594          /*********************************************************************
    595          *********************************************************************/

   Maximum stack usage in bytes:

   ISTACK PSTACK XSTACK Function
   ------ ------ ------ --------
       0      0      9  SerialApp_CallBack
                          0 0  9 -> SerialApp_Send
       0      0     38  SerialApp_Init
                          0 0 38 -> HalLcdWriteString
                          0 0 38 -> HalUARTOpen
                          0 0 38 -> RegisterForKeys
                          0 0 38 -> ZDO_RegisterForZDOMsg
                          0 0 38 -> afRegister
       0      0     33  SerialApp_ProcessEvent
                          0 0 33 -> AF_DataRequest
                          0 0 24 -> HalLedSet
                          0 0 33 -> NLME_GetShortAddr
                          0 0 24 -> SerialApp_ProcessMSGCmd
                          0 0 24 -> SerialApp_Send
                          0 0 24 -> ZDO_ParseEPListRsp
                          0 0 33 -> ZDP_EndDeviceBindReq
                          0 0 32 -> ZDP_MatchDescReq
                          0 0 24 -> osal_mem_free
                          0 0 24 -> osal_msg_deallocate
                          0 0 24 -> osal_msg_receive
                          0 0 24 -> osal_set_event
       0      0     39  SerialApp_ProcessMSGCmd
                          0 0 12 -> HalUARTWrite
                          0 0 15 -> osal_memcpy
                          0 0 12 -> osal_set_event
                          0 0 12 -> osal_start_timerEx
                          0 0 12 -> osal_stop_timerEx
       0      0     43  SerialApp_Send
                          0 0 19 -> AF_DataRequest
                          0 0 10 -> HalUARTRead
                          0 0 10 -> osal_set_event


   Segment part sizes:

   Bytes  Function/Label
   -----  --------------
      10  ?<Constant "SerialApp">
       6  ??SerialApp_CallBack?relay
       6  ??SerialApp_Init?relay
       6  ??SerialApp_ProcessEvent?relay
       6  ??SerialApp_ProcessMSGCmd?relay
       6  ??SerialApp_Send?relay
       5  ??Subroutine7_0
       5  ?Subroutine0
       6  ?Subroutine1
      11  ?Subroutine2
       8  ?Subroutine3
      10  ?Subroutine4
      11  ?Subroutine5
      13  ?Subroutine6
      24  SerialApp_CallBack
       4  SerialApp_ClusterList
     165  SerialApp_Init
       1  SerialApp_MsgID
     555  SerialApp_ProcessEvent
     266  SerialApp_ProcessMSGCmd
       4  SerialApp_RspBuf
      12  SerialApp_RxAddr
       1  SerialApp_RxSeq
     138  SerialApp_Send
      12  SerialApp_SimpleDesc
       1  SerialApp_TaskID
      12  SerialApp_TxAddr
      81  SerialApp_TxBuf
       1  SerialApp_TxLen
       1  SerialApp_TxSeq
       6  SerialApp_epDesc

 
 1 217 bytes in segment BANKED_CODE
    30 bytes in segment BANK_RELAYS
    32 bytes in segment XDATA_ROM_C
   114 bytes in segment XDATA_Z
 
 1 247 bytes of CODE  memory
    32 bytes of CONST memory
   114 bytes of XDATA memory

Errors: none
Warnings: none
